 standalone_flex_file

 Timestamp is 5a954ea1 (Tue Feb 27 12:27:13 2018)

 Preferred load address is 0000000140000000

 Start         Length     Name                   Class
 0001:00000000 0001b790H .text$mn                CODE
 0001:0001b790 00000020H .text$mn$00             CODE
 0001:0001b7b0 000002a0H .text$x                 CODE
 0002:00000000 00000238H .idata$5                DATA
 0002:00000238 00000010H .00cfg                  DATA
 0002:00000248 00000008H .CRT$XCA                DATA
 0002:00000250 00000008H .CRT$XCAA               DATA
 0002:00000258 00000008H .CRT$XCZ                DATA
 0002:00000260 00000008H .CRT$XIA                DATA
 0002:00000268 00000008H .CRT$XIAA               DATA
 0002:00000270 00000008H .CRT$XIAC               DATA
 0002:00000278 00000018H .CRT$XIC                DATA
 0002:00000290 00000008H .CRT$XIZ                DATA
 0002:00000298 00000008H .CRT$XPA                DATA
 0002:000002a0 00000010H .CRT$XPX                DATA
 0002:000002b0 00000008H .CRT$XPXA               DATA
 0002:000002b8 00000008H .CRT$XPZ                DATA
 0002:000002c0 00000008H .CRT$XTA                DATA
 0002:000002c8 00000008H .CRT$XTZ                DATA
 0002:000002d0 00009058H .rdata                  DATA
 0002:00009328 00000000H .rdata$r                DATA
 0002:00009328 00000378H .rdata$zzzdbg           DATA
 0002:000096a0 00000008H .rtc$IAA                DATA
 0002:000096a8 00000008H .rtc$IZZ                DATA
 0002:000096b0 00000008H .rtc$TAA                DATA
 0002:000096b8 00000008H .rtc$TZZ                DATA
 0002:000096c0 000010ccH .xdata                  DATA
 0002:0000a78c 00000000H .edata                  DATA
 0002:0000a78c 00000014H .idata$2                DATA
 0002:0000a7a0 00000018H .idata$3                DATA
 0002:0000a7b8 00000238H .idata$4                DATA
 0002:0000a9f0 00000522H .idata$6                DATA
 0003:00000000 00000a40H .data                   DATA
 0003:00000a40 00000000H .data$r                 DATA
 0003:00000a40 000011d0H .bss                    DATA
 0004:00000000 00001494H .pdata                  DATA
 0005:00000000 00000080H .gfids$x                DATA
 0005:00000080 00000020H .gfids$y                DATA
 0006:00000000 00000060H .rsrc$01                DATA
 0006:00000060 00000180H .rsrc$02                DATA

  Address         Publics by Value              Rva+Base               Lib:Object

 0000:00000000       __guard_iat_table          0000000000000000     <absolute>
 0000:00000000       __guard_iat_count          0000000000000000     <absolute>
 0000:00000000       __dynamic_value_reloc_table 0000000000000000     <absolute>
 0000:00000000       __guard_longjmp_table      0000000000000000     <absolute>
 0000:00000000       __guard_longjmp_count      0000000000000000     <absolute>
 0000:00000000       __guard_fids_count         0000000000000000     <absolute>
 0000:00000000       ___safe_se_handler_table   0000000000000000     <absolute>
 0000:00000000       ___safe_se_handler_count   0000000000000000     <absolute>
 0000:00000000       __guard_fids_table         0000000000000000     <absolute>
 0000:00000100       __guard_flags              0000000000000100     <absolute>
 0000:00000000       __ImageBase                0000000140000000     <linker-defined>
 0001:00000000       __local_stdio_printf_options 0000000140001000 f i prime_sieve.obj
 0001:00000010       __local_stdio_scanf_options 0000000140001010 f i prime_sieve.obj
 0001:00000020       fprintf                    0000000140001020 f i prime_sieve.obj
 0001:00000070       sprintf                    0000000140001070 f i prime_sieve.obj
 0001:000000d0       sscanf                     00000001400010d0 f i prime_sieve.obj
 0001:00000120       generate_args              0000000140001120 f   prime_sieve.obj
 0001:00001620       fscanf                     0000000140002620 f i main.obj
 0001:00001670       main                       0000000140002670 f   main.obj
 0001:00001760       __security_check_cookie    0000000140002760 f   LIBCMT:_amdsecgs_.obj
 0001:000019e4       mainCRTStartup             00000001400029e4 f   LIBCMT:exe_main.obj
 0001:000019f8       __raise_securityfailure    00000001400029f8 f   LIBCMT:gs_report.obj
 0001:00001a2c       __report_gsfailure         0000000140002a2c f   LIBCMT:gs_report.obj
 0001:00001b00       __report_rangecheckfailure 0000000140002b00 f   LIBCMT:gs_report.obj
 0001:00001b14       __report_securityfailure   0000000140002b14 f   LIBCMT:gs_report.obj
 0001:00001c94       __scrt_acquire_startup_lock 0000000140002c94 f   LIBCMT:utility.obj
 0001:00001cd0       __scrt_initialize_crt      0000000140002cd0 f   LIBCMT:utility.obj
 0001:00001d1c       __scrt_initialize_onexit_tables 0000000140002d1c f   LIBCMT:utility.obj
 0001:00001de8       __scrt_is_nonwritable_in_current_image 0000000140002de8 f   LIBCMT:utility.obj
 0001:00001e84       __scrt_release_startup_lock 0000000140002e84 f   LIBCMT:utility.obj
 0001:00001ea8       __scrt_uninitialize_crt    0000000140002ea8 f   LIBCMT:utility.obj
 0001:00001ed4       _onexit                    0000000140002ed4 f   LIBCMT:utility.obj
 0001:00001f24       atexit                     0000000140002f24 f   LIBCMT:utility.obj
 0001:00001f3c       __security_init_cookie     0000000140002f3c f   LIBCMT:gs_support.obj
 0001:00001fe8       _get_startup_argv_mode     0000000140002fe8 f   LIBCMT:argv_mode.obj
 0001:00001ff0       _get_startup_file_mode     0000000140002ff0 f   LIBCMT:file_mode.obj
 0001:00001ff8       _get_startup_thread_locale_mode 0000000140002ff8 f   LIBCMT:thread_locale.obj
 0001:00001ff8       _get_startup_commit_mode   0000000140002ff8 f   LIBCMT:commit_mode.obj
 0001:00001ff8       _matherr                   0000000140002ff8 f   LIBCMT:matherr.obj
 0001:00001ff8       __scrt_initialize_winrt    0000000140002ff8 f   LIBCMT:utility_desktop.obj
 0001:00001ff8       _get_startup_new_mode      0000000140002ff8 f   LIBCMT:new_mode.obj
 0001:00001ffc       ?__scrt_initialize_type_info@@YAXXZ 0000000140002ffc f   LIBCMT:tncleanup.obj
 0001:0000200c       __scrt_initialize_default_local_stdio_options 000000014000300c f   LIBCMT:default_local_stdio_options.obj
 0001:00002028       __scrt_is_user_matherr_present 0000000140003028 f   LIBCMT:matherr_detection.obj
 0001:00002034       __scrt_get_dyn_tls_init_callback 0000000140003034 f   LIBCMT:dyn_tls_init.obj
 0001:0000203c       __scrt_get_dyn_tls_dtor_callback 000000014000303c f   LIBCMT:dyn_tls_dtor.obj
 0001:00002044       __crt_debugger_hook        0000000140003044 f   LIBCMT:utility_desktop.obj
 0001:0000204c       __scrt_fastfail            000000014000304c f   LIBCMT:utility_desktop.obj
 0001:00002194       __scrt_is_managed_app      0000000140003194 f   LIBCMT:utility_desktop.obj
 0001:000021e8       __scrt_set_unhandled_exception_filter 00000001400031e8 f   LIBCMT:utility_desktop.obj
 0001:000021f8       __scrt_unhandled_exception_filter 00000001400031f8 f   LIBCMT:utility_desktop.obj
 0001:00002230       _RTC_Initialize            0000000140003230 f   LIBCMT:_initsect_.obj
 0001:0000227c       _RTC_Terminate             000000014000327c f   LIBCMT:_initsect_.obj
 0001:000022c8       _guard_check_icall         00000001400032c8 f i LIBCMT:checkcfg.obj
 0001:000022d0       __isa_available_init       00000001400032d0 f   LIBCMT:_cpu_disp_.obj
 0001:00002498       __scrt_is_ucrt_dll_in_use  0000000140003498 f   LIBCMT:ucrt_detection.obj
 0001:000024a4       _initialize_invalid_parameter_handler 00000001400034a4 f i LIBCMT:invalid_parameter_handler.obj
 0001:000024a4       __except_validate_context_record 00000001400034a4 f i libvcruntime:jbcxrval.obj
 0001:000024a4       _initialize_denormal_control 00000001400034a4 f i LIBCMT:denormal_control.obj
 0001:000024a4       _guard_check_icall_nop     00000001400034a4 f i LIBCMT:guard_support.obj
 0001:000024b0       __C_specific_handler       00000001400034b0 f   libvcruntime:_chandler_.obj
 0001:000026ac       __vcrt_initialize          00000001400036ac f   libvcruntime:initialization.obj
 0001:000026e0       __vcrt_uninitialize        00000001400036e0 f   libvcruntime:initialization.obj
 0001:00002710       memset                     0000000140003710 f   libvcruntime:memset.obj
 0001:000028c0       _local_unwind              00000001400038c0 f   libvcruntime:_jmpuwind_.obj
 0001:000028f0       _NLG_Notify                00000001400038f0 f   libvcruntime:_jmpuwind_.obj
 0001:00002910       __NLG_Dispatch2            0000000140003910 f   libvcruntime:_jmpuwind_.obj
 0001:00002920       __NLG_Return2              0000000140003920 f   libvcruntime:_jmpuwind_.obj
 0001:00002924       __vcrt_freefls             0000000140003924 f   libvcruntime:per_thread_data.obj
 0001:00002944       __vcrt_initialize_ptd      0000000140003944 f   libvcruntime:per_thread_data.obj
 0001:00002984       __vcrt_uninitialize_ptd    0000000140003984 f   libvcruntime:per_thread_data.obj
 0001:000029a8       __vcrt_initialize_locks    00000001400039a8 f   libvcruntime:locks.obj
 0001:000029f0       __vcrt_uninitialize_locks  00000001400039f0 f   libvcruntime:locks.obj
 0001:00002bf0       __vcrt_FlsAlloc            0000000140003bf0 f   libvcruntime:winapi_downlevel.obj
 0001:00002c44       __vcrt_FlsFree             0000000140003c44 f   libvcruntime:winapi_downlevel.obj
 0001:00002c98       __vcrt_FlsSetValue         0000000140003c98 f   libvcruntime:winapi_downlevel.obj
 0001:00002d00       __vcrt_InitializeCriticalSectionEx 0000000140003d00 f   libvcruntime:winapi_downlevel.obj
 0001:00002d78       __vcrt_initialize_winapi_thunks 0000000140003d78 f   libvcruntime:winapi_downlevel.obj
 0001:00002dc4       __vcrt_uninitialize_winapi_thunks 0000000140003dc4 f   libvcruntime:winapi_downlevel.obj
 0001:00002e04       __vcrt_initialize_pure_virtual_call_handler 0000000140003e04 f   libvcruntime:purevirt_data.obj
 0001:00002e28       calloc                     0000000140003e28 f   libucrt:calloc.obj
 0001:00002e30       __acrt_initialize_stdio    0000000140003e30 f   libucrt:_file.obj
 0001:00002f50       __acrt_iob_func            0000000140003f50 f   libucrt:_file.obj
 0001:00002f64       __acrt_uninitialize_stdio  0000000140003f64 f   libucrt:_file.obj
 0001:00002fc0       _lock_file                 0000000140003fc0 f   libucrt:_file.obj
 0001:00002fcc       _unlock_file               0000000140003fcc f   libucrt:_file.obj
 0001:00002fd8       ??$?RV<lambda_aa279a7bcb127014629d5b1d62c7325d>@@AEAV<lambda_0a64b6a4deda75c01876f29c44fc5eb3>@@V<lambda_3323e69fbefe9d1a11713e670d47cdfa>@@@?$__crt_seh_guarded_call@H@@QEAAH$$QEAV<lambda_aa279a7bcb127014629d5b1d62c7325d>@@AEAV<lambda_0a64b6a4deda75c01876f29c44fc5eb3>@@$$QEAV<lambda_3323e69fbefe9d1a11713e670d47cdfa>@@@Z 0000000140003fd8 f i libucrt:output.obj
 0001:00003018       ??$ensure_buffer_is_big_enough@D@formatting_buffer@__crt_stdio_output@@QEAA_N_K@Z 0000000140004018 f i libucrt:output.obj
 0001:000030c4       ??$is_wide_character_specifier@D@__crt_stdio_output@@YA_N_KDW4length_modifier@0@@Z 00000001400040c4 f i libucrt:output.obj
 0001:000030f4       ??$type_case_integer_parse_into_buffer@I@?$output_processor@DV?$string_output_adapter@D@__crt_stdio_output@@V?$standard_base@DV?$string_output_adapter@D@__crt_stdio_output@@@2@@__crt_stdio_output@@AEAAXII_N@Z 00000001400040f4 f i libucrt:output.obj
 0001:000030f4       ??$type_case_integer_parse_into_buffer@I@?$output_processor@DV?$stream_output_adapter@D@__crt_stdio_output@@V?$standard_base@DV?$stream_output_adapter@D@__crt_stdio_output@@@2@@__crt_stdio_output@@AEAAXII_N@Z 00000001400040f4 f i libucrt:output.obj
 0001:00003190       ??$type_case_integer_parse_into_buffer@_K@?$output_processor@DV?$stream_output_adapter@D@__crt_stdio_output@@V?$standard_base@DV?$stream_output_adapter@D@__crt_stdio_output@@@2@@__crt_stdio_output@@AEAAX_KI_N@Z 0000000140004190 f i libucrt:output.obj
 0001:00003190       ??$type_case_integer_parse_into_buffer@_K@?$output_processor@DV?$string_output_adapter@D@__crt_stdio_output@@V?$standard_base@DV?$string_output_adapter@D@__crt_stdio_output@@@2@@__crt_stdio_output@@AEAAX_KI_N@Z 0000000140004190 f i libucrt:output.obj
 0001:0000322c       ??$write_multiple_characters@V?$stream_output_adapter@D@__crt_stdio_output@@D@__crt_stdio_output@@YAXAEBV?$stream_output_adapter@D@0@DHQEAH@Z 000000014000422c f i libucrt:output.obj
 0001:000032b0       ??$write_multiple_characters@V?$string_output_adapter@D@__crt_stdio_output@@D@__crt_stdio_output@@YAXAEBV?$string_output_adapter@D@0@DHQEAH@Z 00000001400042b0 f i libucrt:output.obj
 0001:0000330c       ??0?$output_processor@DV?$string_output_adapter@D@__crt_stdio_output@@V?$standard_base@DV?$string_output_adapter@D@__crt_stdio_output@@@2@@__crt_stdio_output@@QEAA@AEBV?$string_output_adapter@D@1@_KQEBDQEAU__crt_locale_pointers@@QEAD@Z 000000014000430c f i libucrt:output.obj
 0001:0000330c       ??0?$output_processor@DV?$stream_output_adapter@D@__crt_stdio_output@@V?$standard_base@DV?$stream_output_adapter@D@__crt_stdio_output@@@2@@__crt_stdio_output@@QEAA@AEBV?$stream_output_adapter@D@1@_KQEBDQEAU__crt_locale_pointers@@QEAD@Z 000000014000430c f i libucrt:output.obj
 0001:00003388       ??0_LocaleUpdate@@QEAA@QEAU__crt_locale_pointers@@@Z 0000000140004388 f i libucrt:output.obj
 0001:00003508       ?force_decimal_point@__crt_stdio_output@@YAXPEADQEAU__crt_locale_pointers@@@Z 0000000140004508 f i libucrt:output.obj
 0001:00003578       ?parse_int_from_format_string@?$output_processor@DV?$stream_output_adapter@D@__crt_stdio_output@@V?$standard_base@DV?$stream_output_adapter@D@__crt_stdio_output@@@2@@__crt_stdio_output@@AEAA_NQEAH@Z 0000000140004578 f i libucrt:output.obj
 0001:00003578       ?parse_int_from_format_string@?$output_processor@DV?$string_output_adapter@D@__crt_stdio_output@@V?$standard_base@DV?$string_output_adapter@D@__crt_stdio_output@@@2@@__crt_stdio_output@@AEAA_NQEAH@Z 0000000140004578 f i libucrt:output.obj
 0001:000035fc       ?process@?$output_processor@DV?$stream_output_adapter@D@__crt_stdio_output@@V?$standard_base@DV?$stream_output_adapter@D@__crt_stdio_output@@@2@@__crt_stdio_output@@QEAAHXZ 00000001400045fc f i libucrt:output.obj
 0001:0000380c       ?process@?$output_processor@DV?$string_output_adapter@D@__crt_stdio_output@@V?$standard_base@DV?$string_output_adapter@D@__crt_stdio_output@@@2@@__crt_stdio_output@@QEAAHXZ 000000014000480c f i libucrt:output.obj
 0001:00003a10       ?state_case_normal@?$output_processor@DV?$stream_output_adapter@D@__crt_stdio_output@@V?$standard_base@DV?$stream_output_adapter@D@__crt_stdio_output@@@2@@__crt_stdio_output@@AEAA_NXZ 0000000140004a10 f i libucrt:output.obj
 0001:00003a80       ?state_case_normal@?$output_processor@DV?$string_output_adapter@D@__crt_stdio_output@@V?$standard_base@DV?$string_output_adapter@D@__crt_stdio_output@@@2@@__crt_stdio_output@@AEAA_NXZ 0000000140004a80 f i libucrt:output.obj
 0001:00003af4       ?state_case_normal_tchar@?$output_processor@DV?$stream_output_adapter@D@__crt_stdio_output@@V?$standard_base@DV?$stream_output_adapter@D@__crt_stdio_output@@@2@@__crt_stdio_output@@AEAA_ND@Z 0000000140004af4 f i libucrt:output.obj
 0001:00003b88       ?state_case_normal_tchar@?$output_processor@DV?$string_output_adapter@D@__crt_stdio_output@@V?$standard_base@DV?$string_output_adapter@D@__crt_stdio_output@@@2@@__crt_stdio_output@@AEAA_ND@Z 0000000140004b88 f i libucrt:output.obj
 0001:00003c20       ?state_case_size@?$output_processor@DV?$stream_output_adapter@D@__crt_stdio_output@@V?$standard_base@DV?$stream_output_adapter@D@__crt_stdio_output@@@2@@__crt_stdio_output@@AEAA_NXZ 0000000140004c20 f i libucrt:output.obj
 0001:00003d9c       ?state_case_size@?$output_processor@DV?$string_output_adapter@D@__crt_stdio_output@@V?$standard_base@DV?$string_output_adapter@D@__crt_stdio_output@@@2@@__crt_stdio_output@@AEAA_NXZ 0000000140004d9c f i libucrt:output.obj
 0001:00003f18       ?state_case_type@?$output_processor@DV?$stream_output_adapter@D@__crt_stdio_output@@V?$standard_base@DV?$stream_output_adapter@D@__crt_stdio_output@@@2@@__crt_stdio_output@@AEAA_NXZ 0000000140004f18 f i libucrt:output.obj
 0001:00004194       ?state_case_type@?$output_processor@DV?$string_output_adapter@D@__crt_stdio_output@@V?$standard_base@DV?$string_output_adapter@D@__crt_stdio_output@@@2@@__crt_stdio_output@@AEAA_NXZ 0000000140005194 f i libucrt:output.obj
 0001:00004410       ?type_case_Z@?$output_processor@DV?$string_output_adapter@D@__crt_stdio_output@@V?$standard_base@DV?$string_output_adapter@D@__crt_stdio_output@@@2@@__crt_stdio_output@@AEAA_NXZ 0000000140005410 f i libucrt:output.obj
 0001:00004410       ?type_case_Z@?$output_processor@DV?$stream_output_adapter@D@__crt_stdio_output@@V?$standard_base@DV?$stream_output_adapter@D@__crt_stdio_output@@@2@@__crt_stdio_output@@AEAA_NXZ 0000000140005410 f i libucrt:output.obj
 0001:00004490       ?type_case_a@?$output_processor@DV?$string_output_adapter@D@__crt_stdio_output@@V?$standard_base@DV?$string_output_adapter@D@__crt_stdio_output@@@2@@__crt_stdio_output@@AEAA_NXZ 0000000140005490 f i libucrt:output.obj
 0001:00004490       ?type_case_a@?$output_processor@DV?$stream_output_adapter@D@__crt_stdio_output@@V?$standard_base@DV?$stream_output_adapter@D@__crt_stdio_output@@@2@@__crt_stdio_output@@AEAA_NXZ 0000000140005490 f i libucrt:output.obj
 0001:000046ac       ?type_case_c_tchar@?$output_processor@DV?$stream_output_adapter@D@__crt_stdio_output@@V?$standard_base@DV?$stream_output_adapter@D@__crt_stdio_output@@@2@@__crt_stdio_output@@AEAA_ND@Z 00000001400056ac f i libucrt:output.obj
 0001:000046ac       ?type_case_c_tchar@?$output_processor@DV?$string_output_adapter@D@__crt_stdio_output@@V?$standard_base@DV?$string_output_adapter@D@__crt_stdio_output@@@2@@__crt_stdio_output@@AEAA_ND@Z 00000001400056ac f i libucrt:output.obj
 0001:00004760       ?type_case_integer@?$output_processor@DV?$string_output_adapter@D@__crt_stdio_output@@V?$standard_base@DV?$string_output_adapter@D@__crt_stdio_output@@@2@@__crt_stdio_output@@AEAA_NI_N@Z 0000000140005760 f i libucrt:output.obj
 0001:00004760       ?type_case_integer@?$output_processor@DV?$stream_output_adapter@D@__crt_stdio_output@@V?$standard_base@DV?$stream_output_adapter@D@__crt_stdio_output@@@2@@__crt_stdio_output@@AEAA_NI_N@Z 0000000140005760 f i libucrt:output.obj
 0001:00004900       ?type_case_n@?$output_processor@DV?$string_output_adapter@D@__crt_stdio_output@@V?$standard_base@DV?$string_output_adapter@D@__crt_stdio_output@@@2@@__crt_stdio_output@@AEAA_NXZ 0000000140005900 f i libucrt:output.obj
 0001:00004900       ?type_case_n@?$output_processor@DV?$stream_output_adapter@D@__crt_stdio_output@@V?$standard_base@DV?$stream_output_adapter@D@__crt_stdio_output@@@2@@__crt_stdio_output@@AEAA_NXZ 0000000140005900 f i libucrt:output.obj
 0001:000049dc       ?type_case_s@?$output_processor@DV?$string_output_adapter@D@__crt_stdio_output@@V?$standard_base@DV?$string_output_adapter@D@__crt_stdio_output@@@2@@__crt_stdio_output@@AEAA_NXZ 00000001400059dc f i libucrt:output.obj
 0001:000049dc       ?type_case_s@?$output_processor@DV?$stream_output_adapter@D@__crt_stdio_output@@V?$standard_base@DV?$stream_output_adapter@D@__crt_stdio_output@@@2@@__crt_stdio_output@@AEAA_NXZ 00000001400059dc f i libucrt:output.obj
 0001:00004a6c       ?validate_stream_is_ansi_if_required@?$__acrt_stdio_char_traits@D@@SA_NQEAU_iobuf@@@Z 0000000140005a6c f i libucrt:output.obj
 0001:00004af8       ?write_stored_string_tchar@?$output_processor@DV?$stream_output_adapter@D@__crt_stdio_output@@V?$standard_base@DV?$stream_output_adapter@D@__crt_stdio_output@@@2@@__crt_stdio_output@@AEAA_ND@Z 0000000140005af8 f i libucrt:output.obj
 0001:00004bd0       ?write_stored_string_tchar@?$output_processor@DV?$string_output_adapter@D@__crt_stdio_output@@V?$standard_base@DV?$string_output_adapter@D@__crt_stdio_output@@@2@@__crt_stdio_output@@AEAA_ND@Z 0000000140005bd0 f i libucrt:output.obj
 0001:00004ca8       ?write_string@?$stream_output_adapter@D@__crt_stdio_output@@QEBAXQEBDHQEAH1@Z 0000000140005ca8 f i libucrt:output.obj
 0001:00004da0       ?write_string@?$string_output_adapter@D@__crt_stdio_output@@QEBAXQEBDHQEAH1@Z 0000000140005da0 f i libucrt:output.obj
 0001:00004e5c       __stdio_common_vfprintf    0000000140005e5c f   libucrt:output.obj
 0001:00004ee8       __stdio_common_vsprintf    0000000140005ee8 f   libucrt:output.obj
 0001:0000511c       free                       000000014000611c f   libucrt:free.obj
 0001:00005124       ??$?RV<lambda_c01e8233c1997d6cc4b8f1fd672e07e5>@@AEAV<lambda_3a6204444a8bad05601fdaf7664f6f17>@@V<lambda_b6ae1896c9cebd71befa8310523e5efb>@@@?$__crt_seh_guarded_call@H@@QEAAH$$QEAV<lambda_c01e8233c1997d6cc4b8f1fd672e07e5>@@AEAV<lambda_3a6204444a8bad05601fdaf7664f6f17>@@$$QEAV<lambda_b6ae1896c9cebd71befa8310523e5efb>@@@Z 0000000140006124 f i libucrt:input.obj
 0001:00005164       ??$is_overflow_condition@_K@__crt_strtox@@YA_NI_K@Z 0000000140006164 f i libucrt:input.obj
 0001:0000519c       ??$make_input_adapter_character_source@V?$stream_input_adapter@D@__crt_stdio_input@@@__crt_strtox@@YA?AV?$input_adapter_character_source@V?$stream_input_adapter@D@__crt_stdio_input@@@0@QEAV?$stream_input_adapter@D@__crt_stdio_input@@_KQEA_N@Z 000000014000619c f i libucrt:input.obj
 0001:0000519c       ??$make_input_adapter_character_source@V?$string_input_adapter@D@__crt_stdio_input@@@__crt_strtox@@YA?AV?$input_adapter_character_source@V?$string_input_adapter@D@__crt_stdio_input@@@0@QEAV?$string_input_adapter@D@__crt_stdio_input@@_KQEA_N@Z 000000014000619c f i libucrt:input.obj
 0001:000051bc       ??$parse_floating_point@V?$input_adapter_character_source@V?$stream_input_adapter@D@__crt_stdio_input@@@__crt_strtox@@M@__crt_strtox@@YA?AW4SLD_STATUS@@QEAU__crt_locale_pointers@@V?$input_adapter_character_source@V?$stream_input_adapter@D@__crt_stdio_input@@@0@QEAM@Z 00000001400061bc f i libucrt:input.obj
 0001:00005264       ??$parse_floating_point@V?$input_adapter_character_source@V?$stream_input_adapter@D@__crt_stdio_input@@@__crt_strtox@@N@__crt_strtox@@YA?AW4SLD_STATUS@@QEAU__crt_locale_pointers@@V?$input_adapter_character_source@V?$stream_input_adapter@D@__crt_stdio_input@@@0@QEAN@Z 0000000140006264 f i libucrt:input.obj
 0001:0000530c       ??$parse_floating_point@V?$input_adapter_character_source@V?$string_input_adapter@D@__crt_stdio_input@@@__crt_strtox@@M@__crt_strtox@@YA?AW4SLD_STATUS@@QEAU__crt_locale_pointers@@V?$input_adapter_character_source@V?$string_input_adapter@D@__crt_stdio_input@@@0@QEAM@Z 000000014000630c f i libucrt:input.obj
 0001:000053b4       ??$parse_floating_point@V?$input_adapter_character_source@V?$string_input_adapter@D@__crt_stdio_input@@@__crt_strtox@@N@__crt_strtox@@YA?AW4SLD_STATUS@@QEAU__crt_locale_pointers@@V?$input_adapter_character_source@V?$string_input_adapter@D@__crt_stdio_input@@@0@QEAN@Z 00000001400063b4 f i libucrt:input.obj
 0001:0000545c       ??$parse_floating_point_from_source@V?$input_adapter_character_source@V?$stream_input_adapter@D@__crt_stdio_input@@@__crt_strtox@@@__crt_strtox@@YA?AW4floating_point_parse_result@0@QEAU__crt_locale_pointers@@AEAV?$input_adapter_character_source@V?$stream_input_adapter@D@__crt_stdio_input@@@0@AEAUfloating_point_string@0@@Z 000000014000645c f i libucrt:input.obj
 0001:00005c28       ??$parse_floating_point_from_source@V?$input_adapter_character_source@V?$string_input_adapter@D@__crt_stdio_input@@@__crt_strtox@@@__crt_strtox@@YA?AW4floating_point_parse_result@0@QEAU__crt_locale_pointers@@AEAV?$input_adapter_character_source@V?$string_input_adapter@D@__crt_stdio_input@@@0@AEAUfloating_point_string@0@@Z 0000000140006c28 f i libucrt:input.obj
 0001:00006408       ??$parse_floating_point_possible_infinity@DV?$input_adapter_character_source@V?$stream_input_adapter@D@__crt_stdio_input@@@__crt_strtox@@_K@__crt_strtox@@YA?AW4floating_point_parse_result@0@AEADAEAV?$input_adapter_character_source@V?$stream_input_adapter@D@__crt_stdio_input@@@0@_K@Z 0000000140007408 f i libucrt:input.obj
 0001:000065d0       ??$parse_floating_point_possible_infinity@DV?$input_adapter_character_source@V?$string_input_adapter@D@__crt_stdio_input@@@__crt_strtox@@_K@__crt_strtox@@YA?AW4floating_point_parse_result@0@AEADAEAV?$input_adapter_character_source@V?$string_input_adapter@D@__crt_stdio_input@@@0@_K@Z 00000001400075d0 f i libucrt:input.obj
 0001:00006780       ??$parse_floating_point_possible_nan@DV?$input_adapter_character_source@V?$stream_input_adapter@D@__crt_stdio_input@@@__crt_strtox@@_K@__crt_strtox@@YA?AW4floating_point_parse_result@0@AEADAEAV?$input_adapter_character_source@V?$stream_input_adapter@D@__crt_stdio_input@@@0@_K@Z 0000000140007780 f i libucrt:input.obj
 0001:000069f8       ??$parse_floating_point_possible_nan@DV?$input_adapter_character_source@V?$string_input_adapter@D@__crt_stdio_input@@@__crt_strtox@@_K@__crt_strtox@@YA?AW4floating_point_parse_result@0@AEADAEAV?$input_adapter_character_source@V?$string_input_adapter@D@__crt_stdio_input@@@0@_K@Z 00000001400079f8 f i libucrt:input.obj
 0001:00006c68       ??$parse_floating_point_possible_nan_is_ind@DV?$input_adapter_character_source@V?$stream_input_adapter@D@__crt_stdio_input@@@__crt_strtox@@@__crt_strtox@@YA_NAEADAEAV?$input_adapter_character_source@V?$stream_input_adapter@D@__crt_stdio_input@@@0@@Z 0000000140007c68 f i libucrt:input.obj
 0001:00006cfc       ??$parse_floating_point_possible_nan_is_ind@DV?$input_adapter_character_source@V?$string_input_adapter@D@__crt_stdio_input@@@__crt_strtox@@@__crt_strtox@@YA_NAEADAEAV?$input_adapter_character_source@V?$string_input_adapter@D@__crt_stdio_input@@@0@@Z 0000000140007cfc f i libucrt:input.obj
 0001:00006d74       ??$parse_floating_point_possible_nan_is_snan@DV?$input_adapter_character_source@V?$stream_input_adapter@D@__crt_stdio_input@@@__crt_strtox@@@__crt_strtox@@YA_NAEADAEAV?$input_adapter_character_source@V?$stream_input_adapter@D@__crt_stdio_input@@@0@@Z 0000000140007d74 f i libucrt:input.obj
 0001:00006e08       ??$parse_floating_point_possible_nan_is_snan@DV?$input_adapter_character_source@V?$string_input_adapter@D@__crt_stdio_input@@@__crt_strtox@@@__crt_strtox@@YA_NAEADAEAV?$input_adapter_character_source@V?$string_input_adapter@D@__crt_stdio_input@@@0@@Z 0000000140007e08 f i libucrt:input.obj
 0001:00006e80       ??$parse_floating_point_write_result@M@__crt_strtox@@YA?AW4SLD_STATUS@@W4floating_point_parse_result@0@AEBUfloating_point_string@0@QEAM@Z 0000000140007e80 f i libucrt:input.obj
 0001:00006f98       ??$parse_floating_point_write_result@N@__crt_strtox@@YA?AW4SLD_STATUS@@W4floating_point_parse_result@0@AEBUfloating_point_string@0@QEAN@Z 0000000140007f98 f i libucrt:input.obj
 0001:000070c0       ??$parse_integer@_KV?$input_adapter_character_source@V?$stream_input_adapter@D@__crt_stdio_input@@@__crt_strtox@@@__crt_strtox@@YA_KQEAU__crt_locale_pointers@@V?$input_adapter_character_source@V?$stream_input_adapter@D@__crt_stdio_input@@@0@H_N@Z 00000001400080c0 f i libucrt:input.obj
 0001:00007560       ??$parse_integer@_KV?$input_adapter_character_source@V?$string_input_adapter@D@__crt_stdio_input@@@__crt_strtox@@@__crt_strtox@@YA_KQEAU__crt_locale_pointers@@V?$input_adapter_character_source@V?$string_input_adapter@D@__crt_stdio_input@@@0@H_N@Z 0000000140008560 f i libucrt:input.obj
 0001:000079f4       ??$process_floating_point_specifier_t@M@?$input_processor@DV?$stream_input_adapter@D@__crt_stdio_input@@@__crt_stdio_input@@AEAA_NXZ 00000001400089f4 f i libucrt:input.obj
 0001:00007a94       ??$process_floating_point_specifier_t@M@?$input_processor@DV?$string_input_adapter@D@__crt_stdio_input@@@__crt_stdio_input@@AEAA_NXZ 0000000140008a94 f i libucrt:input.obj
 0001:00007b3c       ??$process_floating_point_specifier_t@N@?$input_processor@DV?$stream_input_adapter@D@__crt_stdio_input@@@__crt_stdio_input@@AEAA_NXZ 0000000140008b3c f i libucrt:input.obj
 0001:00007be0       ??$process_floating_point_specifier_t@N@?$input_processor@DV?$string_input_adapter@D@__crt_stdio_input@@@__crt_stdio_input@@AEAA_NXZ 0000000140008be0 f i libucrt:input.obj
 0001:00007c88       ??$process_string_specifier_tchar@D@?$input_processor@DV?$stream_input_adapter@D@__crt_stdio_input@@@__crt_stdio_input@@AEAA_NW4conversion_mode@1@D@Z 0000000140008c88 f i libucrt:input.obj
 0001:00007e38       ??$process_string_specifier_tchar@D@?$input_processor@DV?$string_input_adapter@D@__crt_stdio_input@@@__crt_stdio_input@@AEAA_NW4conversion_mode@1@D@Z 0000000140008e38 f i libucrt:input.obj
 0001:00008000       ??$process_string_specifier_tchar@_W@?$input_processor@DV?$stream_input_adapter@D@__crt_stdio_input@@@__crt_stdio_input@@AEAA_NW4conversion_mode@1@_W@Z 0000000140009000 f i libucrt:input.obj
 0001:000081e8       ??$process_string_specifier_tchar@_W@?$input_processor@DV?$string_input_adapter@D@__crt_stdio_input@@@__crt_stdio_input@@AEAA_NW4conversion_mode@1@_W@Z 00000001400091e8 f i libucrt:input.obj
 0001:000083e8       ??$skip_whitespace@Vstream_input_adapter@__crt_stdio_input@@D@__crt_stdio_input@@YAHAEAV?$stream_input_adapter@D@0@QEAU__crt_locale_pointers@@@Z 00000001400093e8 f i libucrt:input.obj
 0001:0000846c       ??$skip_whitespace@Vstring_input_adapter@__crt_stdio_input@@D@__crt_stdio_input@@YAHAEAV?$string_input_adapter@D@0@QEAU__crt_locale_pointers@@@Z 000000014000946c f i libucrt:input.obj
 0001:000086c8       ?advance@?$format_string_parser@D@__crt_stdio_input@@QEAA_NXZ 00000001400096c8 f i libucrt:input.obj
 0001:00008898       ?as_double@floating_point_value@__crt_strtox@@QEBAAEANXZ 0000000140009898 f i libucrt:input.obj
 0001:000088d4       ?as_float@floating_point_value@__crt_strtox@@QEBAAEAMXZ 00000001400098d4 f i libucrt:input.obj
 0001:00008910       ?assemble_floating_point_value@__crt_strtox@@YA?AW4SLD_STATUS@@_KH_N1AEBVfloating_point_value@1@@Z 0000000140009910 f i libucrt:input.obj
 0001:00008cc4       ?assemble_floating_point_value_from_big_integer@__crt_strtox@@YA?AW4SLD_STATUS@@AEBUbig_integer@1@I_N1AEBVfloating_point_value@1@@Z 0000000140009cc4 f i libucrt:input.obj
 0001:00008e50       ?convert_decimal_string_to_floating_type_common@__crt_strtox@@YA?AW4SLD_STATUS@@AEBUfloating_point_string@1@AEBVfloating_point_value@1@@Z 0000000140009e50 f i libucrt:input.obj
 0001:0000ac14       ?convert_hexadecimal_string_to_floating_type_common@__crt_strtox@@YA?AW4SLD_STATUS@@AEBUfloating_point_string@1@AEBVfloating_point_value@1@@Z 000000014000bc14 f i libucrt:input.obj
 0001:0000acd0       ?divide@__crt_strtox@@YA_KAEAUbig_integer@1@AEBU21@@Z 000000014000bcd0 f i libucrt:input.obj
 0001:0000b1a0       ?length@?$format_string_parser@D@__crt_stdio_input@@QEBA_KXZ 000000014000c1a0 f i libucrt:input.obj
 0001:0000b23c       ?process@?$input_processor@DV?$stream_input_adapter@D@__crt_stdio_input@@@__crt_stdio_input@@QEAAHXZ 000000014000c23c f i libucrt:input.obj
 0001:0000b318       ?process@?$input_processor@DV?$string_input_adapter@D@__crt_stdio_input@@@__crt_stdio_input@@QEAAHXZ 000000014000c318 f i libucrt:input.obj
 0001:0000b408       ?process_conversion_specifier@?$input_processor@DV?$stream_input_adapter@D@__crt_stdio_input@@@__crt_stdio_input@@AEAA_NXZ 000000014000c408 f i libucrt:input.obj
 0001:0000b528       ?process_conversion_specifier@?$input_processor@DV?$string_input_adapter@D@__crt_stdio_input@@@__crt_stdio_input@@AEAA_NXZ 000000014000c528 f i libucrt:input.obj
 0001:0000b64c       ?process_floating_point_specifier@?$input_processor@DV?$stream_input_adapter@D@__crt_stdio_input@@@__crt_stdio_input@@AEAA_NXZ 000000014000c64c f i libucrt:input.obj
 0001:0000b6b0       ?process_floating_point_specifier@?$input_processor@DV?$string_input_adapter@D@__crt_stdio_input@@@__crt_stdio_input@@AEAA_NXZ 000000014000c6b0 f i libucrt:input.obj
 0001:0000b720       ?process_integer_specifier@?$input_processor@DV?$stream_input_adapter@D@__crt_stdio_input@@@__crt_stdio_input@@AEAA_NI_N@Z 000000014000c720 f i libucrt:input.obj
 0001:0000b7c4       ?process_integer_specifier@?$input_processor@DV?$string_input_adapter@D@__crt_stdio_input@@@__crt_stdio_input@@AEAA_NI_N@Z 000000014000c7c4 f i libucrt:input.obj
 0001:0000b874       ?process_literal_character_tchar@?$input_processor@DV?$stream_input_adapter@D@__crt_stdio_input@@@__crt_stdio_input@@AEAA_ND@Z 000000014000c874 f i libucrt:input.obj
 0001:0000b8ec       ?process_literal_character_tchar@?$input_processor@DV?$string_input_adapter@D@__crt_stdio_input@@@__crt_stdio_input@@AEAA_ND@Z 000000014000c8ec f i libucrt:input.obj
 0001:0000b978       ?process_state@?$input_processor@DV?$stream_input_adapter@D@__crt_stdio_input@@@__crt_stdio_input@@AEAA_NXZ 000000014000c978 f i libucrt:input.obj
 0001:0000ba1c       ?process_state@?$input_processor@DV?$string_input_adapter@D@__crt_stdio_input@@@__crt_stdio_input@@AEAA_NXZ 000000014000ca1c f i libucrt:input.obj
 0001:0000bad0       ?process_string_specifier@?$input_processor@DV?$stream_input_adapter@D@__crt_stdio_input@@@__crt_stdio_input@@AEAA_NW4conversion_mode@2@@Z 000000014000cad0 f i libucrt:input.obj
 0001:0000bb50       ?process_string_specifier@?$input_processor@DV?$string_input_adapter@D@__crt_stdio_input@@@__crt_stdio_input@@AEAA_NW4conversion_mode@2@@Z 000000014000cb50 f i libucrt:input.obj
 0001:0000bbdc       ?scan_conversion_specifier@?$format_string_parser@D@__crt_stdio_input@@AEAA_NXZ 000000014000cbdc f i libucrt:input.obj
 0001:0000bd98       ?scan_optional_field_width@?$format_string_parser@D@__crt_stdio_input@@AEAA_NXZ 000000014000cd98 f i libucrt:input.obj
 0001:0000be40       ?scan_optional_length_modifier@?$format_string_parser@D@__crt_stdio_input@@AEAAXXZ 000000014000ce40 f i libucrt:input.obj
 0001:0000bf6c       ?scan_scanset_range@?$format_string_parser@D@__crt_stdio_input@@AEAA_NXZ 000000014000cf6c f i libucrt:input.obj
 0001:0000c100       ?write_character@?$input_processor@DV?$stream_input_adapter@D@__crt_stdio_input@@@__crt_stdio_input@@AEAA_NQEFA_W_KAEAPEFA_WAEA_KD@Z 000000014000d100 f i libucrt:input.obj
 0001:0000c198       ?write_character@?$input_processor@DV?$string_input_adapter@D@__crt_stdio_input@@@__crt_stdio_input@@AEAA_NQEFA_W_KAEAPEFA_WAEA_KD@Z 000000014000d198 f i libucrt:input.obj
 0001:0000c234       ?write_integer@?$input_processor@DV?$stream_input_adapter@D@__crt_stdio_input@@@__crt_stdio_input@@AEAA_N_K_N@Z 000000014000d234 f i libucrt:input.obj
 0001:0000c2b4       ?write_integer@?$input_processor@DV?$string_input_adapter@D@__crt_stdio_input@@@__crt_stdio_input@@AEAA_N_K_N@Z 000000014000d2b4 f i libucrt:input.obj
 0001:0000c338       __stdio_common_vfscanf     000000014000d338 f   libucrt:input.obj
 0001:0000c3c4       __stdio_common_vsscanf     000000014000d3c4 f   libucrt:input.obj
 0001:0000c594       malloc                     000000014000d594 f   libucrt:malloc.obj
 0001:0000c66c       fopen                      000000014000d66c f   libucrt:fopen.obj
 0001:0000c678       _fclose_nolock             000000014000d678 f   libucrt:fclose.obj
 0001:0000c6fc       fclose                     000000014000d6fc f   libucrt:fclose.obj
 0001:0000c768       _seh_filter_exe            000000014000d768 f   libucrt:exception_filter.obj
 0001:0000c8f8       _query_app_type            000000014000d8f8 f   libucrt:report_runtime_error.obj
 0001:0000c900       _set_app_type              000000014000d900 f   libucrt:report_runtime_error.obj
 0001:0000c908       __acrt_has_user_matherr    000000014000d908 f   libucrt:matherr.obj
 0001:0000c928       __acrt_initialize_user_matherr 000000014000d928 f   libucrt:matherr.obj
 0001:0000c930       __acrt_invoke_user_matherr 000000014000d930 f   libucrt:matherr.obj
 0001:0000c978       __setusermatherr           000000014000d978 f   libucrt:matherr.obj
 0001:0000cb5c       __acrt_allocate_buffer_for_argv 000000014000db5c f   libucrt:argv_parsing.obj
 0001:0000cbc0       _configure_narrow_argv     000000014000dbc0 f   libucrt:argv_parsing.obj
 0001:0000d038       __dcrt_get_or_create_narrow_environment_nolock 000000014000e038 f   libucrt:environment_initialization.obj
 0001:0000d040       __dcrt_uninitialize_environments_nolock 000000014000e040 f   libucrt:environment_initialization.obj
 0001:0000d078       _get_initial_narrow_environment 000000014000e078 f   libucrt:environment_initialization.obj
 0001:0000d09c       _initialize_narrow_environment 000000014000e09c f   libucrt:environment_initialization.obj
 0001:0000d0a4       _initterm                  000000014000e0a4 f   libucrt:initterm.obj
 0001:0000d11c       _initterm_e                000000014000e11c f   libucrt:initterm.obj
 0001:0000d398       __acrt_initialize_thread_local_exit_callback 000000014000e398 f   libucrt:exit.obj
 0001:0000d3a0       _c_exit                    000000014000e3a0 f   libucrt:exit.obj
 0001:0000d3b0       _cexit                     000000014000e3b0 f   libucrt:exit.obj
 0001:0000d3c0       _exit                      000000014000e3c0 f   libucrt:exit.obj
 0001:0000d3cc       _register_thread_local_exe_atexit_callback 000000014000e3cc f   libucrt:exit.obj
 0001:0000d410       exit                       000000014000e410 f   libucrt:exit.obj
 0001:0000d41c       _get_fmode                 000000014000e41c f   libucrt:setmode.obj
 0001:0000d44c       _set_fmode                 000000014000e44c f   libucrt:setmode.obj
 0001:0000d48c       _setmode_nolock            000000014000e48c f   libucrt:setmode.obj
 0001:0000d56c       __acrt_initialize_command_line 000000014000e56c f   libucrt:argv_data.obj
 0001:0000d594       __p___argc                 000000014000e594 f   libucrt:argv_data.obj
 0001:0000d59c       __p___argv                 000000014000e59c f   libucrt:argv_data.obj
 0001:0000d5a4       __acrt_set_locale_changed  000000014000e5a4 f   libucrt:wsetlocale.obj
 0001:0000d5b0       __acrt_uninitialize_locale 000000014000e5b0 f   libucrt:wsetlocale.obj
 0001:0000d5f8       _configthreadlocale        000000014000e5f8 f   libucrt:wsetlocale.obj
 0001:0000d664       _query_new_mode            000000014000e664 f   libucrt:new_mode.obj
 0001:0000d66c       _set_new_mode              000000014000e66c f   libucrt:new_mode.obj
 0001:0000d698       __p__commode               000000014000e698 f   libucrt:ncommode.obj
 0001:0000d6a0       ??$?RV<lambda_b8c45f8f788dd370798f47cfe8ac3a86>@@AEAV<lambda_4e60a939b0d047cfe11ddc22648dfba9>@@V<lambda_332c3edc96d0294ec56c57d38c1cdfd5>@@@?$__crt_seh_guarded_call@H@@QEAAH$$QEAV<lambda_b8c45f8f788dd370798f47cfe8ac3a86>@@AEAV<lambda_4e60a939b0d047cfe11ddc22648dfba9>@@$$QEAV<lambda_332c3edc96d0294ec56c57d38c1cdfd5>@@@Z 000000014000e6a0 f i libucrt:onexit.obj
 0001:0000d6dc       ??$?RV<lambda_e24bbb7b643b32fcea6fa61b31d4c984>@@AEAV<lambda_275893d493268fdec8709772e3fcec0e>@@V<lambda_9d71df4d7cf3f480f8d633942495c3b0>@@@?$__crt_seh_guarded_call@H@@QEAAH$$QEAV<lambda_e24bbb7b643b32fcea6fa61b31d4c984>@@AEAV<lambda_275893d493268fdec8709772e3fcec0e>@@$$QEAV<lambda_9d71df4d7cf3f480f8d633942495c3b0>@@@Z 000000014000e6dc f i libucrt:onexit.obj
 0001:0000da58       _crt_atexit                000000014000ea58 f   libucrt:onexit.obj
 0001:0000da68       _execute_onexit_table      000000014000ea68 f   libucrt:onexit.obj
 0001:0000daa4       _initialize_onexit_table   000000014000eaa4 f   libucrt:onexit.obj
 0001:0000dae4       _register_onexit_function  000000014000eae4 f   libucrt:onexit.obj
 0001:0000db64       _should_initialize_environment 000000014000eb64 f   LIBCMT:env_mode.obj
 0001:0000db64       __acrt_uninitialize_command_line 000000014000eb64 f   libucrt:argv_data.obj
 0001:0000dc64       __acrt_initialize          000000014000ec64 f   libucrt:initialization.obj
 0001:0000dc78       __acrt_uninitialize        000000014000ec78 f   libucrt:initialization.obj
 0001:0000dc8c       terminate                  000000014000ec8c f   libucrt:terminate.obj
 0001:0000dcb4       _free_base                 000000014000ecb4 f   libucrt:free_base.obj
 0001:0000dcf4       _malloc_base               000000014000ecf4 f   libucrt:malloc_base.obj
 0001:0000dd54       strcpy_s                   000000014000ed54 f   libucrt:strcpy_s.obj
 0001:0000ddb4       abort                      000000014000edb4 f   libucrt:abort.obj
 0001:0000de0c       _calloc_base               000000014000ee0c f   libucrt:calloc_base.obj
 0001:0000de84       ??$is_overflow_condition@K@__crt_strtox@@YA_NIK@Z 000000014000ee84 f i libucrt:atox.obj
 0001:0000deb0       ??$parse_integer@KV?$c_string_character_source@D@__crt_strtox@@@__crt_strtox@@YAKQEAU__crt_locale_pointers@@V?$c_string_character_source@D@0@H_N@Z 000000014000eeb0 f i libucrt:atox.obj
 0001:0000e1c4       ??$parse_integer@_KV?$c_string_character_source@D@__crt_strtox@@@__crt_strtox@@YA_KQEAU__crt_locale_pointers@@V?$c_string_character_source@D@0@H_N@Z 000000014000f1c4 f i libucrt:atox.obj
 0001:0000e4f8       __acrt_call_reportfault    000000014000f4f8 f   libucrt:invalid_parameter.obj
 0001:0000e654       __acrt_initialize_invalid_parameter_handler 000000014000f654 f   libucrt:invalid_parameter.obj
 0001:0000e65c       _invalid_parameter         000000014000f65c f   libucrt:invalid_parameter.obj
 0001:0000e704       _invalid_parameter_noinfo  000000014000f704 f   libucrt:invalid_parameter.obj
 0001:0000e724       _invoke_watson             000000014000f724 f   libucrt:invalid_parameter.obj
 0001:0000e76c       __acrt_errno_from_os_error 000000014000f76c f   libucrt:errno.obj
 0001:0000e7b4       __acrt_errno_map_os_error  000000014000f7b4 f   libucrt:errno.obj
 0001:0000e804       __doserrno                 000000014000f804 f   libucrt:errno.obj
 0001:0000e824       _errno                     000000014000f824 f   libucrt:errno.obj
 0001:0000e9e4       __acrt_AreFileApisANSI     000000014000f9e4 f   libucrt:winapi_thunks.obj
 0001:0000ea30       __acrt_CompareStringEx     000000014000fa30 f   libucrt:winapi_thunks.obj
 0001:0000eb20       __acrt_FlsAlloc            000000014000fb20 f   libucrt:winapi_thunks.obj
 0001:0000eb78       __acrt_FlsFree             000000014000fb78 f   libucrt:winapi_thunks.obj
 0001:0000ebd0       __acrt_FlsGetValue         000000014000fbd0 f   libucrt:winapi_thunks.obj
 0001:0000ec28       __acrt_FlsSetValue         000000014000fc28 f   libucrt:winapi_thunks.obj
 0001:0000ec90       __acrt_InitializeCriticalSectionEx 000000014000fc90 f   libucrt:winapi_thunks.obj
 0001:0000ed08       __acrt_LCMapStringEx       000000014000fd08 f   libucrt:winapi_thunks.obj
 0001:0000edf8       __acrt_LocaleNameToLCID    000000014000fdf8 f   libucrt:winapi_thunks.obj
 0001:0000ee60       __acrt_initialize_winapi_thunks 000000014000fe60 f   libucrt:winapi_thunks.obj
 0001:0000ee98       __acrt_is_packaged_app     000000014000fe98 f   libucrt:winapi_thunks.obj
 0001:0000ef20       __acrt_uninitialize_winapi_thunks 000000014000ff20 f   libucrt:winapi_thunks.obj
 0001:0000ef64       _fcloseall                 000000014000ff64 f   libucrt:closeall.obj
 0001:0000f018       __acrt_stdio_flush_nolock  0000000140010018 f   libucrt:fflush.obj
 0001:0000f090       _fflush_nolock             0000000140010090 f   libucrt:fflush.obj
 0001:0000f0dc       _flushall                  00000001400100dc f   libucrt:fflush.obj
 0001:0000f1cc       __acrt_stdio_free_buffer_nolock 00000001400101cc f   libucrt:_freebuf.obj
 0001:0000f3f4       __acrt_initialize_lowio    00000001400103f4 f   libucrt:ioinit.obj
 0001:0000f430       __acrt_uninitialize_lowio  0000000140010430 f   libucrt:ioinit.obj
 0001:0000f470       isdigit                    0000000140010470 f i libucrt:_ctype.obj
 0001:0000f4e4       isspace                    00000001400104e4 f i libucrt:_ctype.obj
 0001:0000f5a8       _tolower_l                 00000001400105a8 f   libucrt:tolower_toupper.obj
 0001:0000f6e8       tolower                    00000001400106e8 f   libucrt:tolower_toupper.obj
 0001:0000f714       ??$make_c_string_character_source@DPEAPEAD@__crt_strtox@@YA?AV?$c_string_character_source@D@0@QEBDQEAPEAD@Z 0000000140010714 f i libucrt:strtox.obj
 0001:0000f728       strtol                     0000000140010728 f   libucrt:strtox.obj
 0001:0000f758       strtoull                   0000000140010758 f   libucrt:strtox.obj
 0001:0000f788       _mbtowc_l                  0000000140010788 f   libucrt:mbtowc.obj
 0001:0000f8d0       mbtowc                     00000001400108d0 f   libucrt:mbtowc.obj
 0001:0000f8d8       _wctomb_s_l                00000001400108d8 f   libucrt:wctomb.obj
 0001:0000fa5c       wctomb_s                   0000000140010a5c f   libucrt:wctomb.obj
 0001:0000fa70       strnlen                    0000000140010a70 f   libucrt:strnlen.obj
 0001:0000fbcc       wcsnlen                    0000000140010bcc f   libucrt:strnlen.obj
 0001:0000fdbc       ??$?RV<lambda_46352004c1216016012b18bd6f87e700>@@AEAV<lambda_3bd07e1a1191394380780325891bf33f>@@V<lambda_334532d3f185bcaa59b5be82d7d22bff>@@@?$__crt_seh_guarded_call@X@@QEAAX$$QEAV<lambda_46352004c1216016012b18bd6f87e700>@@AEAV<lambda_3bd07e1a1191394380780325891bf33f>@@$$QEAV<lambda_334532d3f185bcaa59b5be82d7d22bff>@@@Z 0000000140010dbc f i libucrt:per_thread_data.obj
 0001:0000fe1c       ??$?RV<lambda_5e887d1dcbef67a5eb4283622ba103bf>@@AEAV<lambda_4466841279450cc726390878d4a41900>@@V<lambda_341c25c0346d94847f1f3c463c57e077>@@@?$__crt_seh_guarded_call@X@@QEAAX$$QEAV<lambda_5e887d1dcbef67a5eb4283622ba103bf>@@AEAV<lambda_4466841279450cc726390878d4a41900>@@$$QEAV<lambda_341c25c0346d94847f1f3c463c57e077>@@@Z 0000000140010e1c f i libucrt:per_thread_data.obj
 0001:0000fe64       ??$?RV<lambda_72d1df2b273a38828b1ce30cbf4cdab5>@@AEAV<lambda_876a65b173b8412d3a47c70a915b0cf4>@@V<lambda_41932305e351933ebe8f8be3ed8bb5dc>@@@?$__crt_seh_guarded_call@X@@QEAAX$$QEAV<lambda_72d1df2b273a38828b1ce30cbf4cdab5>@@AEAV<lambda_876a65b173b8412d3a47c70a915b0cf4>@@$$QEAV<lambda_41932305e351933ebe8f8be3ed8bb5dc>@@@Z 0000000140010e64 f i libucrt:per_thread_data.obj
 0001:0000fea4       ??$?RV<lambda_fb3a7dec4e47f37f22dae91bb15c9095>@@AEAV<lambda_698284760c8add0bfb0756c19673e34b>@@V<lambda_dfb8eca1e75fef3034a8fb18dd509707>@@@?$__crt_seh_guarded_call@X@@QEAAX$$QEAV<lambda_fb3a7dec4e47f37f22dae91bb15c9095>@@AEAV<lambda_698284760c8add0bfb0756c19673e34b>@@$$QEAV<lambda_dfb8eca1e75fef3034a8fb18dd509707>@@@Z 0000000140010ea4 f i libucrt:per_thread_data.obj
 0001:00010134       __acrt_getptd              0000000140011134 f   libucrt:per_thread_data.obj
 0001:000101c8       __acrt_getptd_noexit       00000001400111c8 f   libucrt:per_thread_data.obj
 0001:00010268       __acrt_initialize_ptd      0000000140011268 f   libucrt:per_thread_data.obj
 0001:000102a4       __acrt_uninitialize_ptd    00000001400112a4 f   libucrt:per_thread_data.obj
 0001:000102c8       __acrt_update_locale_info  00000001400112c8 f   libucrt:locale_update.obj
 0001:000102fc       __acrt_update_multibyte_info 00000001400112fc f   libucrt:locale_update.obj
 0001:00010330       ?__acrt_fp_classify@@YA?AW4__acrt_fp_class@@AEBN@Z 0000000140011330 f i libucrt:cvt.obj
 0001:00010d68       __acrt_fp_format           0000000140011d68 f   libucrt:cvt.obj
 0001:00010fac       _fileno                    0000000140011fac f   libucrt:fileno.obj
 0001:00010fd4       _fputc_nolock              0000000140011fd4 f   libucrt:fputc.obj
 0001:00010fec       _get_printf_count_output   0000000140011fec f   libucrt:printf_count_output.obj
 0001:00011004       __acrt_stdio_begin_temporary_buffering_nolock 0000000140012004 f   libucrt:_sftbuf.obj
 0001:000110d4       __acrt_stdio_end_temporary_buffering_nolock 00000001400120d4 f   libucrt:_sftbuf.obj
 0001:00011110       __pctype_func              0000000140012110 f   libucrt:ctype.obj
 0001:00011140       _isctype_l                 0000000140012140 f   libucrt:isctype.obj
 0001:00011250       _fgetc_nolock              0000000140012250 f   libucrt:fgetc.obj
 0001:00011294       _getc_nolock               0000000140012294 f   libucrt:fgetc.obj
 0001:0001129c       _ungetc_nolock             000000014001229c f   libucrt:ungetc.obj
 0001:000113ac       fegetround                 00000001400123ac f   libucrt:fegetround.obj
 0001:000113c0       ?__acrt_stdio_allocate_stream@@YA?AV__crt_stdio_stream@@XZ 00000001400123c0 f   libucrt:stream.obj
 0001:0001141c       ?__acrt_stdio_free_stream@@YAXV__crt_stdio_stream@@@Z 000000014001241c f   libucrt:stream.obj
 0001:0001154c       ??$__acrt_stdio_parse_mode@D@@YA?AU__acrt_stdio_stream_mode@@QEBD@Z 000000014001254c f i libucrt:openfile.obj
 0001:000117e8       _openfile                  00000001400127e8 f   libucrt:openfile.obj
 0001:00011884       ??$?RV<lambda_bfedae4ebbf01fab1bb6dcc6a9e276e0>@@AEAV<lambda_2fe9b910cf3cbf4a0ab98a02ba45b3ec>@@V<lambda_237c231691f317818eb88cc1d5d642d6>@@@?$__crt_seh_guarded_call@H@@QEAAH$$QEAV<lambda_bfedae4ebbf01fab1bb6dcc6a9e276e0>@@AEAV<lambda_2fe9b910cf3cbf4a0ab98a02ba45b3ec>@@$$QEAV<lambda_237c231691f317818eb88cc1d5d642d6>@@@Z 0000000140012884 f i libucrt:close.obj
 0001:000118f8       _close                     00000001400128f8 f   libucrt:close.obj
 0001:0001199c       _close_nolock              000000014001299c f   libucrt:close.obj
 0001:00011f34       ?expand_if_necessary@?$argument_list@D@?A0xca0879c4@@AEAAHXZ 0000000140012f34 f i libucrt:argv_wildcards.obj
 0001:00011ffc       __acrt_expand_narrow_argv_wildcards 0000000140012ffc f   libucrt:argv_wildcards.obj
 0001:00012004       ??$?RV<lambda_99476a1ad63dd22509b5d3e65b0ffc95>@@AEAV<lambda_ad1ced32f4ac17aa236e5ef05d6b3b7c>@@V<lambda_f7424dd8d45958661754dc4f2697e9c3>@@@?$__crt_seh_guarded_call@X@@QEAAX$$QEAV<lambda_99476a1ad63dd22509b5d3e65b0ffc95>@@AEAV<lambda_ad1ced32f4ac17aa236e5ef05d6b3b7c>@@$$QEAV<lambda_f7424dd8d45958661754dc4f2697e9c3>@@@Z 0000000140013004 f i libucrt:mbctype.obj
 0001:00012700       __acrt_initialize_multibyte 0000000140013700 f   libucrt:mbctype.obj
 0001:00012728       __acrt_update_thread_multibyte_data 0000000140013728 f   libucrt:mbctype.obj
 0001:000127e8       _setmbcp_nolock            00000001400137e8 f   libucrt:mbctype.obj
 0001:00012b08       _ismbblead                 0000000140013b08 f   libucrt:ismbbyte.obj
 0001:00012b1c       __dcrt_get_narrow_environment_from_os 0000000140013b1c f   libucrt:get_environment_from_os.obj
 0001:00012ffc       __dcrt_set_variable_in_narrow_environment_nolock 0000000140013ffc f   libucrt:setenv.obj
 0001:00013004       __acrt_initialize_locks    0000000140014004 f   libucrt:locks.obj
 0001:0001304c       __acrt_lock                000000014001404c f   libucrt:locks.obj
 0001:00013068       __acrt_uninitialize_locks  0000000140014068 f   libucrt:locks.obj
 0001:000130a0       __acrt_unlock              00000001400140a0 f   libucrt:locks.obj
 0001:000130bc       __acrt_lowio_create_handle_array 00000001400140bc f   libucrt:osfinfo.obj
 0001:00013154       __acrt_lowio_destroy_handle_array 0000000140014154 f   libucrt:osfinfo.obj
 0001:000131a4       __acrt_lowio_ensure_fh_exists 00000001400141a4 f   libucrt:osfinfo.obj
 0001:0001325c       __acrt_lowio_lock_fh       000000014001425c f   libucrt:osfinfo.obj
 0001:00013280       __acrt_lowio_set_os_handle 0000000140014280 f   libucrt:osfinfo.obj
 0001:00013340       __acrt_lowio_unlock_fh     0000000140014340 f   libucrt:osfinfo.obj
 0001:00013364       _alloc_osfhnd              0000000140014364 f   libucrt:osfinfo.obj
 0001:00013494       _free_osfhnd               0000000140014494 f   libucrt:osfinfo.obj
 0001:00013550       _get_osfhandle             0000000140014550 f   libucrt:osfinfo.obj
 0001:000135c8       __acrt_locale_free_monetary 00000001400145c8 f   libucrt:initmon.obj
 0001:000136d4       __acrt_locale_free_numeric 00000001400146d4 f   libucrt:initnum.obj
 0001:00013798       __acrt_locale_free_time    0000000140014798 f   libucrt:inittime.obj
 0001:000138a0       __acrt_GetStringTypeA      00000001400148a0 f   libucrt:getstringtypea.obj
 0001:00013a54       __acrt_add_locale_ref      0000000140014a54 f   libucrt:locale_refcounting.obj
 0001:00013ae0       __acrt_free_locale         0000000140014ae0 f   libucrt:locale_refcounting.obj
 0001:00013c58       __acrt_locale_add_lc_time_reference 0000000140014c58 f   libucrt:locale_refcounting.obj
 0001:00013c80       __acrt_locale_free_lc_time_if_unreferenced 0000000140014c80 f   libucrt:locale_refcounting.obj
 0001:00013cb8       __acrt_locale_release_lc_time_reference 0000000140014cb8 f   libucrt:locale_refcounting.obj
 0001:00013ce0       __acrt_release_locale_ref  0000000140014ce0 f   libucrt:locale_refcounting.obj
 0001:00013d88       __acrt_update_thread_locale_data 0000000140014d88 f   libucrt:locale_refcounting.obj
 0001:00013df8       _updatetlocinfoEx_nolock   0000000140014df8 f   libucrt:locale_refcounting.obj
 0001:00013e60       _recalloc                  0000000140014e60 f   libucrt:recalloc.obj
 0001:00013e68       _recalloc_base             0000000140014e68 f   libucrt:recalloc.obj
 0001:00013f00       __acrt_initialize_heap     0000000140014f00 f   libucrt:heap_handle.obj
 0001:00013f1c       __acrt_uninitialize_heap   0000000140014f1c f   libucrt:heap_handle.obj
 0001:00013f28       __acrt_execute_initializers 0000000140014f28 f   libucrt:shared_initialization.obj
 0001:00013fbc       __acrt_execute_uninitializers 0000000140014fbc f   libucrt:shared_initialization.obj
 0001:0001400c       __acrt_initialize_new_handler 000000014001500c f   libucrt:new_handler.obj
 0001:00014014       _callnewh                  0000000140015014 f   libucrt:new_handler.obj
 0001:00014054       _query_new_handler         0000000140015054 f   libucrt:new_handler.obj
 0001:00014088       ??$?RV<lambda_c36588078e9f5dfd39652860aa6b3aaf>@@AEAV<lambda_ec61778202f4f5fc7e7711acc23c3bca>@@V<lambda_dc9d2797ccde5d239b4a0efae8ebd7db>@@@?$__crt_seh_guarded_call@P6AXH@Z@@QEAAP6AXH@Z$$QEAV<lambda_c36588078e9f5dfd39652860aa6b3aaf>@@AEAV<lambda_ec61778202f4f5fc7e7711acc23c3bca>@@$$QEAV<lambda_dc9d2797ccde5d239b4a0efae8ebd7db>@@@Z 0000000140015088 f i libucrt:signal.obj
 0001:000140d0       __acrt_get_sigabrt_handler 00000001400150d0 f   libucrt:signal.obj
 0001:00014100       __acrt_initialize_signal_handlers 0000000140015100 f   libucrt:signal.obj
 0001:00014120       raise                      0000000140015120 f   libucrt:signal.obj
 0001:00014484       __acrt_DownlevelLocaleNameToLCID 0000000140015484 f   libucrt:lcidtoname_downlevel.obj
 0001:000144b8       ??$?RV<lambda_b521505b218e5242e90febf6bfebc422>@@AEAV<lambda_6978c1fb23f02e42e1d9e99668cc68aa>@@V<lambda_314360699dd331753a4119843814e9a7>@@@?$__crt_seh_guarded_call@H@@QEAAH$$QEAV<lambda_b521505b218e5242e90febf6bfebc422>@@AEAV<lambda_6978c1fb23f02e42e1d9e99668cc68aa>@@$$QEAV<lambda_314360699dd331753a4119843814e9a7>@@@Z 00000001400154b8 f i libucrt:commit.obj
 0001:00014544       _commit                    0000000140015544 f   libucrt:commit.obj
 0001:00014b78       _write                     0000000140015b78 f   libucrt:write.obj
 0001:00014c64       _write_nolock              0000000140015c64 f   libucrt:write.obj
 0001:00014f48       _isleadbyte_l              0000000140015f48 f i libucrt:_wctype.obj
 0001:000152e4       __acrt_LCMapStringA        00000001400162e4 f   libucrt:lcmapstringa.obj
 0001:0001537c       __acrt_fp_strflt_to_string 000000014001637c f   libucrt:_fptostr.obj
 0001:0001543c       __acrt_fltout              000000014001643c f   libucrt:cfout.obj
 0001:000168ac       __acrt_stdio_flush_and_write_narrow_nolock 00000001400178ac f   libucrt:_flsbuf.obj
 0001:00016994       _isatty                    0000000140017994 f   libucrt:isatty.obj
 0001:00016b9c       __acrt_stdio_refill_and_read_narrow_nolock 0000000140017b9c f   libucrt:_filbuf.obj
 0001:00016ba4       __acrt_stdio_allocate_buffer_nolock 0000000140017ba4 f   libucrt:_getbuf.obj
 0001:00016c08       _getfpcontrolword          0000000140017c08 f   libucrt:_fenvutils.obj
 0001:00016c20       _getfpstatusword           0000000140017c20 f   libucrt:_fenvutils.obj
 0001:00016c34       _setfpcontrolword          0000000140017c34 f   libucrt:_fenvutils.obj
 0001:00016c40       _setfpstatusword           0000000140017c40 f   libucrt:_fenvutils.obj
 0001:00016ca0       strncmp                    0000000140017ca0 f   libucrt:strncmp.obj
 0001:00016d20       __ascii_strnicmp           0000000140017d20 f   libucrt:strnicmp.obj
 0001:00016d68       _strnicmp                  0000000140017d68 f   libucrt:strnicmp.obj
 0001:00016db8       _strnicmp_l                0000000140017db8 f   libucrt:strnicmp.obj
 0001:000174d8       _sopen_nolock              00000001400184d8 f   libucrt:open.obj
 0001:00017568       _sopen_s                   0000000140018568 f   libucrt:open.obj
 0001:0001759c       _wsopen_nolock             000000014001859c f   libucrt:open.obj
 0001:00017a60       qsort                      0000000140018a60 f   libucrt:qsort.obj
 0001:00017d94       strncpy_s                  0000000140018d94 f   libucrt:strncpy_s.obj
 0001:00017e68       strpbrk                    0000000140018e68 f   libucrt:strpbrk.obj
 0001:00017f08       _mbsdec                    0000000140018f08 f   libucrt:mbsdec.obj
 0001:00017f10       _mbsdec_l                  0000000140018f10 f   libucrt:mbsdec.obj
 0001:00017fc0       _strnicoll                 0000000140018fc0 f   libucrt:strnicol.obj
 0001:00017fd8       _strnicoll_l               0000000140018fd8 f   libucrt:strnicol.obj
 0001:000180d8       _msize                     00000001400190d8 f   libucrt:msize.obj
 0001:00018114       _realloc_base              0000000140019114 f   libucrt:realloc_base.obj
 0001:00018324       _lseeki64                  0000000140019324 f   libucrt:lseek.obj
 0001:0001832c       _lseeki64_nolock           000000014001932c f   libucrt:lseek.obj
 0001:00018334       _putwch_nolock             0000000140019334 f   libucrt:putwch.obj
 0001:00018390       __strncnt                  0000000140019390 f   libucrt:strncnt.obj
 0001:000183a8       fegetenv                   00000001400193a8 f   libucrt:fegetenv.obj
 0001:000183c8       fesetenv                   00000001400193c8 f   libucrt:fesetenv.obj
 0001:00018414       feholdexcept               0000000140019414 f   libucrt:feholdexcept.obj
 0001:00018464       ceil                       0000000140019464 f   libucrt:ceil.obj
 0001:00018530       log10                      0000000140019530 f   libucrt:log10.obj
 0001:0001900c       _read                      000000014001a00c f   libucrt:read.obj
 0001:00019124       _read_nolock               000000014001a124 f   libucrt:read.obj
 0001:0001958c       _clearfp                   000000014001a58c f   libucrt:ieee.obj
 0001:000195e0       _controlfp                 000000014001a5e0 f   libucrt:ieee.obj
 0001:000195ec       _statusfp                  000000014001a5ec f   libucrt:ieee.obj
 0001:000198e0       _get_fpsr                  000000014001a8e0 f   libucrt:fpsr.obj
 0001:000198f0       _set_fpsr                  000000014001a8f0 f   libucrt:fpsr.obj
 0001:000198fa       _fclrf                     000000014001a8fa f   libucrt:fpsr.obj
 0001:0001990e       _frnd                      000000014001a90e f   libucrt:fpsr.obj
 0001:00019930       __acrt_copy_path_to_wide_string 000000014001a930 f   libucrt:string_utilities.obj
 0001:00019a28       _chsize_nolock             000000014001aa28 f   libucrt:chsize.obj
 0001:00019f38       __acrt_CompareStringA      000000014001af38 f   libucrt:comparestringa.obj
 0001:00019fc4       __dcrt_lowio_initialize_console_output 000000014001afc4 f   libucrt:initcon.obj
 0001:0001a000       __dcrt_terminate_console_output 000000014001b000 f   libucrt:initcon.obj
 0001:0001a144       _handle_error              000000014001b144 f   libucrt:libm_error.obj
 0001:0001a26c       _handle_nan                000000014001b26c f   libucrt:libm_error.obj
 0001:0001a290       __acrt_initialize_fma3     000000014001b290 f   libucrt:fma3_available.obj
 0001:0001a300       _log10_special             000000014001b300 f   libucrt:log_special.obj
 0001:0001a320       _log_special               000000014001b320 f   libucrt:log_special.obj
 0001:0001a3d8       _raise_exc                 000000014001b3d8 f   libucrt:fpexcept.obj
 0001:0001a400       _raise_exc_ex              000000014001b400 f   libucrt:fpexcept.obj
 0001:0001a708       _set_errno_from_matherr    000000014001b708 f   libucrt:fpexcept.obj
 0001:0001a738       _clrfp                     000000014001b738 f   libucrt:fpctrl.obj
 0001:0001a758       _ctrlfp                    000000014001b758 f   libucrt:fpctrl.obj
 0001:0001a7d4       _set_statfp                000000014001b7d4 f   libucrt:fpctrl.obj
 0001:0001a7f4       _statfp                    000000014001b7f4 f   libucrt:fpctrl.obj
 0001:0001a806       IsProcessorFeaturePresent  000000014001b806 f   kernel32:KERNEL32.dll
 0001:0001a80c       RtlUnwindEx                000000014001b80c f   kernel32:KERNEL32.dll
 0001:0001a820       _FindPESection             000000014001b820 f   LIBCMT:pesect.obj
 0001:0001a870       _IsNonwritableInCurrentImage 000000014001b870 f   LIBCMT:pesect.obj
 0001:0001a8c0       _ValidateImageBase         000000014001b8c0 f   LIBCMT:pesect.obj
 0001:0001a8f0       __GSHandlerCheck           000000014001b8f0 f   LIBCMT:_gshandler_.obj
 0001:0001a910       __GSHandlerCheckCommon     000000014001b910 f   LIBCMT:_gshandler_.obj
 0001:0001a980       _alloca_probe              000000014001b980 f   LIBCMT:_chkstk_.obj
 0001:0001a980       __chkstk                   000000014001b980 f   LIBCMT:_chkstk_.obj
 0001:0001a9f0       memcpy                     000000014001b9f0 f   libvcruntime:memcpy.obj
 0001:0001a9f0       memmove                    000000014001b9f0 f   libvcruntime:memcpy.obj
 0001:0001ae40       memcmp                     000000014001be40 f   libvcruntime:memcmp.obj
 0001:0001af08       strrchr                    000000014001bf08 f   libvcruntime:strrchr.obj
 0001:0001b048       strchr                     000000014001c048 f   libvcruntime:strchr.obj
 0001:0001b0d4       floor                      000000014001c0d4 f   libucrt:floor.obj
 0001:0001b190       log                        000000014001c190 f   libucrt:log.obj
 0001:0001b6bc       sqrt                       000000014001c6bc f   libucrt:sqrt.obj
 0001:0001b7a0       _guard_dispatch_icall_nop  000000014001c7a0 f   LIBCMT:_guard_dispatch_.obj
 0002:00000000       __imp_RtlCaptureContext    000000014001d000     kernel32:KERNEL32.dll
 0002:00000008       __imp_RtlLookupFunctionEntry 000000014001d008     kernel32:KERNEL32.dll
 0002:00000010       __imp_RtlVirtualUnwind     000000014001d010     kernel32:KERNEL32.dll
 0002:00000018       __imp_UnhandledExceptionFilter 000000014001d018     kernel32:KERNEL32.dll
 0002:00000020       __imp_SetUnhandledExceptionFilter 000000014001d020     kernel32:KERNEL32.dll
 0002:00000028       __imp_GetCurrentProcess    000000014001d028     kernel32:KERNEL32.dll
 0002:00000030       __imp_TerminateProcess     000000014001d030     kernel32:KERNEL32.dll
 0002:00000038       __imp_IsProcessorFeaturePresent 000000014001d038     kernel32:KERNEL32.dll
 0002:00000040       __imp_QueryPerformanceCounter 000000014001d040     kernel32:KERNEL32.dll
 0002:00000048       __imp_GetCurrentProcessId  000000014001d048     kernel32:KERNEL32.dll
 0002:00000050       __imp_GetCurrentThreadId   000000014001d050     kernel32:KERNEL32.dll
 0002:00000058       __imp_GetSystemTimeAsFileTime 000000014001d058     kernel32:KERNEL32.dll
 0002:00000060       __imp_InitializeSListHead  000000014001d060     kernel32:KERNEL32.dll
 0002:00000068       __imp_IsDebuggerPresent    000000014001d068     kernel32:KERNEL32.dll
 0002:00000070       __imp_GetStartupInfoW      000000014001d070     kernel32:KERNEL32.dll
 0002:00000078       __imp_GetModuleHandleW     000000014001d078     kernel32:KERNEL32.dll
 0002:00000080       __imp_RtlUnwindEx          000000014001d080     kernel32:KERNEL32.dll
 0002:00000088       __imp_GetLastError         000000014001d088     kernel32:KERNEL32.dll
 0002:00000090       __imp_SetLastError         000000014001d090     kernel32:KERNEL32.dll
 0002:00000098       __imp_EnterCriticalSection 000000014001d098     kernel32:KERNEL32.dll
 0002:000000a0       __imp_LeaveCriticalSection 000000014001d0a0     kernel32:KERNEL32.dll
 0002:000000a8       __imp_DeleteCriticalSection 000000014001d0a8     kernel32:KERNEL32.dll
 0002:000000b0       __imp_InitializeCriticalSectionAndSpinCount 000000014001d0b0     kernel32:KERNEL32.dll
 0002:000000b8       __imp_TlsAlloc             000000014001d0b8     kernel32:KERNEL32.dll
 0002:000000c0       __imp_TlsGetValue          000000014001d0c0     kernel32:KERNEL32.dll
 0002:000000c8       __imp_TlsSetValue          000000014001d0c8     kernel32:KERNEL32.dll
 0002:000000d0       __imp_TlsFree              000000014001d0d0     kernel32:KERNEL32.dll
 0002:000000d8       __imp_FreeLibrary          000000014001d0d8     kernel32:KERNEL32.dll
 0002:000000e0       __imp_GetProcAddress       000000014001d0e0     kernel32:KERNEL32.dll
 0002:000000e8       __imp_LoadLibraryExW       000000014001d0e8     kernel32:KERNEL32.dll
 0002:000000f0       __imp_GetStdHandle         000000014001d0f0     kernel32:KERNEL32.dll
 0002:000000f8       __imp_WriteFile            000000014001d0f8     kernel32:KERNEL32.dll
 0002:00000100       __imp_GetModuleFileNameA   000000014001d100     kernel32:KERNEL32.dll
 0002:00000108       __imp_MultiByteToWideChar  000000014001d108     kernel32:KERNEL32.dll
 0002:00000110       __imp_WideCharToMultiByte  000000014001d110     kernel32:KERNEL32.dll
 0002:00000118       __imp_ExitProcess          000000014001d118     kernel32:KERNEL32.dll
 0002:00000120       __imp_GetModuleHandleExW   000000014001d120     kernel32:KERNEL32.dll
 0002:00000128       __imp_GetCommandLineA      000000014001d128     kernel32:KERNEL32.dll
 0002:00000130       __imp_GetCommandLineW      000000014001d130     kernel32:KERNEL32.dll
 0002:00000138       __imp_GetACP               000000014001d138     kernel32:KERNEL32.dll
 0002:00000140       __imp_HeapFree             000000014001d140     kernel32:KERNEL32.dll
 0002:00000148       __imp_HeapAlloc            000000014001d148     kernel32:KERNEL32.dll
 0002:00000150       __imp_CompareStringW       000000014001d150     kernel32:KERNEL32.dll
 0002:00000158       __imp_LCMapStringW         000000014001d158     kernel32:KERNEL32.dll
 0002:00000160       __imp_GetFileType          000000014001d160     kernel32:KERNEL32.dll
 0002:00000168       __imp_GetStringTypeW       000000014001d168     kernel32:KERNEL32.dll
 0002:00000170       __imp_CloseHandle          000000014001d170     kernel32:KERNEL32.dll
 0002:00000178       __imp_FindClose            000000014001d178     kernel32:KERNEL32.dll
 0002:00000180       __imp_FindFirstFileExA     000000014001d180     kernel32:KERNEL32.dll
 0002:00000188       __imp_FindNextFileA        000000014001d188     kernel32:KERNEL32.dll
 0002:00000190       __imp_IsValidCodePage      000000014001d190     kernel32:KERNEL32.dll
 0002:00000198       __imp_GetOEMCP             000000014001d198     kernel32:KERNEL32.dll
 0002:000001a0       __imp_GetCPInfo            000000014001d1a0     kernel32:KERNEL32.dll
 0002:000001a8       __imp_GetEnvironmentStringsW 000000014001d1a8     kernel32:KERNEL32.dll
 0002:000001b0       __imp_FreeEnvironmentStringsW 000000014001d1b0     kernel32:KERNEL32.dll
 0002:000001b8       __imp_SetEnvironmentVariableA 000000014001d1b8     kernel32:KERNEL32.dll
 0002:000001c0       __imp_SetStdHandle         000000014001d1c0     kernel32:KERNEL32.dll
 0002:000001c8       __imp_GetProcessHeap       000000014001d1c8     kernel32:KERNEL32.dll
 0002:000001d0       __imp_FlushFileBuffers     000000014001d1d0     kernel32:KERNEL32.dll
 0002:000001d8       __imp_GetConsoleCP         000000014001d1d8     kernel32:KERNEL32.dll
 0002:000001e0       __imp_GetConsoleMode       000000014001d1e0     kernel32:KERNEL32.dll
 0002:000001e8       __imp_CreateFileW          000000014001d1e8     kernel32:KERNEL32.dll
 0002:000001f0       __imp_HeapSize             000000014001d1f0     kernel32:KERNEL32.dll
 0002:000001f8       __imp_HeapReAlloc          000000014001d1f8     kernel32:KERNEL32.dll
 0002:00000200       __imp_SetFilePointerEx     000000014001d200     kernel32:KERNEL32.dll
 0002:00000208       __imp_WriteConsoleW        000000014001d208     kernel32:KERNEL32.dll
 0002:00000210       __imp_ReadFile             000000014001d210     kernel32:KERNEL32.dll
 0002:00000218       __imp_ReadConsoleW         000000014001d218     kernel32:KERNEL32.dll
 0002:00000220       __imp_SetEndOfFile         000000014001d220     kernel32:KERNEL32.dll
 0002:00000228       __imp_RaiseException       000000014001d228     kernel32:KERNEL32.dll
 0002:00000230       \177KERNEL32_NULL_THUNK_DATA 000000014001d230     kernel32:KERNEL32.dll
 0002:00000238       __guard_check_icall_fptr   000000014001d238     LIBCMT:guard_support.obj
 0002:00000240       __guard_dispatch_icall_fptr 000000014001d240     LIBCMT:guard_support.obj
 0002:00000248       __xc_a                     000000014001d248     LIBCMT:initializers.obj
 0002:00000258       __xc_z                     000000014001d258     LIBCMT:initializers.obj
 0002:00000260       __xi_a                     000000014001d260     LIBCMT:initializers.obj
 0002:00000278       __acrt_stdio_initializer   000000014001d278     libucrt:stdio_initializer.obj
 0002:00000280       __acrt_multibyte_initializer 000000014001d280     libucrt:multibyte_initializer.obj
 0002:00000288       __acrt_tran_fma3_initializer 000000014001d288     libucrt:fma3_initializer.obj
 0002:00000290       __xi_z                     000000014001d290     LIBCMT:initializers.obj
 0002:00000298       __xp_a                     000000014001d298     LIBCMT:initializers.obj
 0002:000002a0       __acrt_locale_terminator   000000014001d2a0     libucrt:locale_initializer.obj
 0002:000002a8       __dcrt_console_output_terminator 000000014001d2a8     libucrt:console_output_initializer.obj
 0002:000002b0       __acrt_stdio_terminator    000000014001d2b0     libucrt:stdio_initializer.obj
 0002:000002b8       __xp_z                     000000014001d2b8     LIBCMT:initializers.obj
 0002:000002c0       __xt_a                     000000014001d2c0     LIBCMT:initializers.obj
 0002:000002c8       __xt_z                     000000014001d2c8     LIBCMT:initializers.obj
 0002:00000300       ??_C@_1BC@DNHGCMLG@?$AAa?$AAd?$AAv?$AAa?$AAp?$AAi?$AA3?$AA2?$AA?$AA@ 000000014001d300     libvcruntime:winapi_downlevel.obj
 0002:00000318       ??_C@_1DM@KHCHBNEB@?$AAa?$AAp?$AAi?$AA?9?$AAm?$AAs?$AA?9?$AAw?$AAi?$AAn?$AA?9?$AAc?$AAo?$AAr?$AAe?$AA?9?$AAf?$AAi?$AAb?$AAe?$AAr?$AAs?$AA?9?$AAl?$AA1?$AA?9?$AA1?$AA?9?$AA1?$AA?$AA@ 000000014001d318     libvcruntime:winapi_downlevel.obj
 0002:00000358       ??_C@_1DK@LPPGFMPP@?$AAa?$AAp?$AAi?$AA?9?$AAm?$AAs?$AA?9?$AAw?$AAi?$AAn?$AA?9?$AAc?$AAo?$AAr?$AAe?$AA?9?$AAs?$AAy?$AAn?$AAc?$AAh?$AA?9?$AAl?$AA1?$AA?9?$AA2?$AA?9?$AA0?$AA?$AA@ 000000014001d358     libvcruntime:winapi_downlevel.obj
 0002:00000398       ??_C@_1BC@GDMECMAK@?$AAk?$AAe?$AAr?$AAn?$AAe?$AAl?$AA3?$AA2?$AA?$AA@ 000000014001d398     libvcruntime:winapi_downlevel.obj
 0002:000003b8       ??_C@_08KNHFBNJ@FlsAlloc?$AA@ 000000014001d3b8     libvcruntime:winapi_downlevel.obj
 0002:000003d0       ??_C@_07PEJMOBNF@FlsFree?$AA@ 000000014001d3d0     libvcruntime:winapi_downlevel.obj
 0002:000003d8       ??_C@_0M@GDNOONDI@FlsGetValue?$AA@ 000000014001d3d8     libvcruntime:winapi_downlevel.obj
 0002:000003f0       ??_C@_0M@JCPCPOEF@FlsSetValue?$AA@ 000000014001d3f0     libvcruntime:winapi_downlevel.obj
 0002:00000408       ??_C@_0BM@HCFOFFN@InitializeCriticalSectionEx?$AA@ 000000014001d408     libvcruntime:winapi_downlevel.obj
 0002:00000750       ??_C@_08EHJDFFNH@__based?$CI?$AA@ 000000014001d750     libvcruntime:undname.obj
 0002:00000760       ??_C@_07KOLFKCDI@__cdecl?$AA@ 000000014001d760     libvcruntime:undname.obj
 0002:00000768       ??_C@_08GHMPAG@__pascal?$AA@ 000000014001d768     libvcruntime:undname.obj
 0002:00000778       ??_C@_09IFJBGAPI@__stdcall?$AA@ 000000014001d778     libvcruntime:undname.obj
 0002:00000788       ??_C@_0L@NPHFGOKO@__thiscall?$AA@ 000000014001d788     libvcruntime:undname.obj
 0002:00000798       ??_C@_0L@JMKHOMEK@__fastcall?$AA@ 000000014001d798     libvcruntime:undname.obj
 0002:000007a8       ??_C@_0N@BCKKPABJ@__vectorcall?$AA@ 000000014001d7a8     libvcruntime:undname.obj
 0002:000007b8       ??_C@_09HIJEGCPM@__clrcall?$AA@ 000000014001d7b8     libvcruntime:undname.obj
 0002:000007c4       ??_C@_06GHPCKEAG@__eabi?$AA@ 000000014001d7c4     libvcruntime:undname.obj
 0002:000007d0       ??_C@_07JOMMBBKO@__ptr64?$AA@ 000000014001d7d0     libvcruntime:undname.obj
 0002:000007d8       ??_C@_0L@PILCLIHE@__restrict?$AA@ 000000014001d7d8     libvcruntime:undname.obj
 0002:000007e8       ??_C@_0M@GFIIJFMG@__unaligned?$AA@ 000000014001d7e8     libvcruntime:undname.obj
 0002:000007f8       ??_C@_09DHDLOLLB@restrict?$CI?$AA@ 000000014001d7f8     libvcruntime:undname.obj
 0002:00000802       ??_C@_00CNPNBAHC@?$AA@     000000014001d802     libvcruntime:undname.obj
 0002:00000804       ??_C@_04NIHEBCM@?5new?$AA@ 000000014001d804     libvcruntime:undname.obj
 0002:00000810       ??_C@_07FPCDHGMM@?5delete?$AA@ 000000014001d810     libvcruntime:undname.obj
 0002:00000818       ??_C@_01NEMOKFLO@?$DN?$AA@ 000000014001d818     libvcruntime:undname.obj
 0002:0000081c       ??_C@_02GPIOPFAK@?$DO?$DO?$AA@ 000000014001d81c     libvcruntime:undname.obj
 0002:00000820       ??_C@_02FODMEDOG@?$DM?$DM?$AA@ 000000014001d820     libvcruntime:undname.obj
 0002:00000824       ??_C@_01DCLJPIOD@?$CB?$AA@ 000000014001d824     libvcruntime:undname.obj
 0002:00000828       ??_C@_02EGOFBIJA@?$DN?$DN?$AA@ 000000014001d828     libvcruntime:undname.obj
 0002:0000082c       ??_C@_02FDNJECIE@?$CB?$DN?$AA@ 000000014001d82c     libvcruntime:undname.obj
 0002:00000830       ??_C@_02GPECMEKF@?$FL?$FN?$AA@ 000000014001d830     libvcruntime:undname.obj
 0002:00000838       ??_C@_08LHJFAFGD@operator?$AA@ 000000014001d838     libvcruntime:undname.obj
 0002:00000844       ??_C@_02HBOOOICD@?9?$DO?$AA@ 000000014001d844     libvcruntime:undname.obj
 0002:00000848       ??_C@_01NBENCBCI@?$CK?$AA@ 000000014001d848     libvcruntime:undname.obj
 0002:0000084c       ??_C@_02ECNGHCIF@?$CL?$CL?$AA@ 000000014001d84c     libvcruntime:undname.obj
 0002:00000850       ??_C@_02BAABKJLB@?9?9?$AA@ 000000014001d850     libvcruntime:undname.obj
 0002:00000854       ??_C@_01JOAMLHOP@?9?$AA@   000000014001d854     libvcruntime:undname.obj
 0002:00000858       ??_C@_01MIFGBAGJ@?$CL?$AA@ 000000014001d858     libvcruntime:undname.obj
 0002:0000085c       ??_C@_01HNPIGOCE@?$CG?$AA@ 000000014001d85c     libvcruntime:undname.obj
 0002:00000860       ??_C@_03MNHNFDLC@?9?$DO?$CK?$AA@ 000000014001d860     libvcruntime:undname.obj
 0002:00000864       ??_C@_01KMDKNFGN@?1?$AA@   000000014001d864     libvcruntime:undname.obj
 0002:00000868       ??_C@_01FGNFDNOH@?$CF?$AA@ 000000014001d868     libvcruntime:undname.obj
 0002:0000086c       ??_C@_01MNNFJEPP@?$DM?$AA@ 000000014001d86c     libvcruntime:undname.obj
 0002:00000870       ??_C@_02EHCHHCKH@?$DM?$DN?$AA@ 000000014001d870     libvcruntime:undname.obj
 0002:00000874       ??_C@_01PPODPGHN@?$DO?$AA@ 000000014001d874     libvcruntime:undname.obj
 0002:00000878       ??_C@_02EEKDKGMJ@?$DO?$DN?$AA@ 000000014001d878     libvcruntime:undname.obj
 0002:0000087c       ??_C@_01IHBHIGKO@?0?$AA@   000000014001d87c     libvcruntime:undname.obj
 0002:00000880       ??_C@_02HCKGKOFO@?$CI?$CJ?$AA@ 000000014001d880     libvcruntime:undname.obj
 0002:00000884       ??_C@_01PJKLJHI@?$HO?$AA@  000000014001d884     libvcruntime:undname.obj
 0002:00000888       ??_C@_01JKBOJNNK@?$FO?$AA@ 000000014001d888     libvcruntime:undname.obj
 0002:0000088c       ??_C@_01DNKMNLPK@?$HM?$AA@ 000000014001d88c     libvcruntime:undname.obj
 0002:00000890       ??_C@_02PPKAJPJL@?$CG?$CG?$AA@ 000000014001d890     libvcruntime:undname.obj
 0002:00000894       ??_C@_02NONPIBCD@?$HM?$HM?$AA@ 000000014001d894     libvcruntime:undname.obj
 0002:00000898       ??_C@_02FPIMKNGF@?$CK?$DN?$AA@ 000000014001d898     libvcruntime:undname.obj
 0002:0000089c       ??_C@_02FOEOMHFC@?$CL?$DN?$AA@ 000000014001d89c     libvcruntime:undname.obj
 0002:000008a0       ??_C@_02FKMDLLOA@?9?$DN?$AA@ 000000014001d8a0     libvcruntime:undname.obj
 0002:000008a4       ??_C@_02FJEHGPIO@?1?$DN?$AA@ 000000014001d8a4     libvcruntime:undname.obj
 0002:000008a8       ??_C@_02FENAOKFI@?$CF?$DN?$AA@ 000000014001d8a8     libvcruntime:undname.obj
 0002:000008ac       ??_C@_03IKFCCPFF@?$DO?$DO?$DN?$AA@ 000000014001d8ac     libvcruntime:undname.obj
 0002:000008b0       ??_C@_03CDNPDDLA@?$DM?$DM?$DN?$AA@ 000000014001d8b0     libvcruntime:undname.obj
 0002:000008b4       ??_C@_02FGJGFEAB@?$CG?$DN?$AA@ 000000014001d8b4     libvcruntime:undname.obj
 0002:000008b8       ??_C@_02DHLNPPGH@?$HM?$DN?$AA@ 000000014001d8b8     libvcruntime:undname.obj
 0002:000008bc       ??_C@_02MHEGNOJ@?$FO?$DN?$AA@ 000000014001d8bc     libvcruntime:undname.obj
 0002:000008c0       ??_C@_09IFPLHPGF@?$GAvftable?8?$AA@ 000000014001d8c0     libvcruntime:undname.obj
 0002:000008d0       ??_C@_09BLBHBJP@?$GAvbtable?8?$AA@ 000000014001d8d0     libvcruntime:undname.obj
 0002:000008e0       ??_C@_07FEEIOKP@?$GAvcall?8?$AA@ 000000014001d8e0     libvcruntime:undname.obj
 0002:000008e8       ??_C@_08LLFFHHDJ@?$GAtypeof?8?$AA@ 000000014001d8e8     libvcruntime:undname.obj
 0002:000008f8       ??_C@_0BF@KDPPACIK@?$GAlocal?5static?5guard?8?$AA@ 000000014001d8f8     libvcruntime:undname.obj
 0002:00000910       ??_C@_08OBABFOLI@?$GAstring?8?$AA@ 000000014001d910     libvcruntime:undname.obj
 0002:00000920       ??_C@_0BD@JDLKDPAB@?$GAvbase?5destructor?8?$AA@ 000000014001d920     libvcruntime:undname.obj
 0002:00000938       ??_C@_0BN@DEGPLNFK@?$GAvector?5deleting?5destructor?8?$AA@ 000000014001d938     libvcruntime:undname.obj
 0002:00000958       ??_C@_0BO@OBMKPJIG@?$GAdefault?5constructor?5closure?8?$AA@ 000000014001d958     libvcruntime:undname.obj
 0002:00000978       ??_C@_0BN@IMDCHIKM@?$GAscalar?5deleting?5destructor?8?$AA@ 000000014001d978     libvcruntime:undname.obj
 0002:00000998       ??_C@_0BO@PFGOCPJJ@?$GAvector?5constructor?5iterator?8?$AA@ 000000014001d998     libvcruntime:undname.obj
 0002:000009b8       ??_C@_0BN@LFPFMEDL@?$GAvector?5destructor?5iterator?8?$AA@ 000000014001d9b8     libvcruntime:undname.obj
 0002:000009d8       ??_C@_0CE@IKBNEHA@?$GAvector?5vbase?5constructor?5iterat@ 000000014001d9d8     libvcruntime:undname.obj
 0002:00000a00       ??_C@_0BL@NILFHHPC@?$GAvirtual?5displacement?5map?8?$AA@ 000000014001da00     libvcruntime:undname.obj
 0002:00000a20       ??_C@_0CB@JONCMFFK@?$GAeh?5vector?5constructor?5iterator?8@ 000000014001da20     libvcruntime:undname.obj
 0002:00000a48       ??_C@_0CA@GCEOPDGL@?$GAeh?5vector?5destructor?5iterator?8?$AA@ 000000014001da48     libvcruntime:undname.obj
 0002:00000a68       ??_C@_0CH@OOJPLCPH@?$GAeh?5vector?5vbase?5constructor?5ite@ 000000014001da68     libvcruntime:undname.obj
 0002:00000a90       ??_C@_0BL@LLKPOHJI@?$GAcopy?5constructor?5closure?8?$AA@ 000000014001da90     libvcruntime:undname.obj
 0002:00000ab0       ??_C@_0BA@KBCDOMBN@?$GAudt?5returning?8?$AA@ 000000014001dab0     libvcruntime:undname.obj
 0002:00000ac0       ??_C@_03KLGMFNMG@?$GAEH?$AA@ 000000014001dac0     libvcruntime:undname.obj
 0002:00000ac4       ??_C@_05KHLCHHI@?$GARTTI?$AA@ 000000014001dac4     libvcruntime:undname.obj
 0002:00000ad0       ??_C@_0BA@KKLDJDLB@?$GAlocal?5vftable?8?$AA@ 000000014001dad0     libvcruntime:undname.obj
 0002:00000ae0       ??_C@_0CE@IIHCMGGL@?$GAlocal?5vftable?5constructor?5closu@ 000000014001dae0     libvcruntime:undname.obj
 0002:00000b04       ??_C@_06FHBGPFGH@?5new?$FL?$FN?$AA@ 000000014001db04     libvcruntime:undname.obj
 0002:00000b10       ??_C@_09LBNFPBCA@?5delete?$FL?$FN?$AA@ 000000014001db10     libvcruntime:undname.obj
 0002:00000b20       ??_C@_0P@HJKNJFNN@?$GAomni?5callsig?8?$AA@ 000000014001db20     libvcruntime:undname.obj
 0002:00000b30       ??_C@_0BL@CNOONJFP@?$GAplacement?5delete?5closure?8?$AA@ 000000014001db30     libvcruntime:undname.obj
 0002:00000b50       ??_C@_0BN@CKNJLHMB@?$GAplacement?5delete?$FL?$FN?5closure?8?$AA@ 000000014001db50     libvcruntime:undname.obj
 0002:00000b70       ??_C@_0CG@CFDHKGGD@?$GAmanaged?5vector?5constructor?5iter@ 000000014001db70     libvcruntime:undname.obj
 0002:00000b98       ??_C@_0CF@IMGKMJNO@?$GAmanaged?5vector?5destructor?5itera@ 000000014001db98     libvcruntime:undname.obj
 0002:00000bc0       ??_C@_0CG@HLDDJMAG@?$GAeh?5vector?5copy?5constructor?5iter@ 000000014001dbc0     libvcruntime:undname.obj
 0002:00000be8       ??_C@_0CM@FCBBDIGB@?$GAeh?5vector?5vbase?5copy?5constructo@ 000000014001dbe8     libvcruntime:undname.obj
 0002:00000c18       ??_C@_0BL@CLIPGLGB@?$GAdynamic?5initializer?5for?5?8?$AA@ 000000014001dc18     libvcruntime:undname.obj
 0002:00000c38       ??_C@_0CB@PDBIFEP@?$GAdynamic?5atexit?5destructor?5for?5?8@ 000000014001dc38     libvcruntime:undname.obj
 0002:00000c60       ??_C@_0CD@CGAJBKEJ@?$GAvector?5copy?5constructor?5iterato@ 000000014001dc60     libvcruntime:undname.obj
 0002:00000c88       ??_C@_0CJ@GJELGAMM@?$GAvector?5vbase?5copy?5constructor?5i@ 000000014001dc88     libvcruntime:undname.obj
 0002:00000cb8       ??_C@_0CL@FGIJHLCE@?$GAmanaged?5vector?5copy?5constructor@ 000000014001dcb8     libvcruntime:undname.obj
 0002:00000ce8       ??_C@_0BM@PMGGMLDN@?$GAlocal?5static?5thread?5guard?8?$AA@ 000000014001dce8     libvcruntime:undname.obj
 0002:00000d08       ??_C@_0N@BDNMDMOL@operator?5?$CC?$CC?5?$AA@ 000000014001dd08     libvcruntime:undname.obj
 0002:00000d18       ??_C@_0BC@DAFEJGAK@?5Type?5Descriptor?8?$AA@ 000000014001dd18     libvcruntime:undname.obj
 0002:00000d30       ??_C@_0BM@LDKODKLH@?5Base?5Class?5Descriptor?5at?5?$CI?$AA@ 000000014001dd30     libvcruntime:undname.obj
 0002:00000d50       ??_C@_0BD@LGICGFMM@?5Base?5Class?5Array?8?$AA@ 000000014001dd50     libvcruntime:undname.obj
 0002:00000d68       ??_C@_0BN@MECKDCOJ@?5Class?5Hierarchy?5Descriptor?8?$AA@ 000000014001dd68     libvcruntime:undname.obj
 0002:00000d88       ??_C@_0BK@CFCOFLF@?5Complete?5Object?5Locator?8?$AA@ 000000014001dd88     libvcruntime:undname.obj
 0002:00000db0       standard_lookup_table      000000014001ddb0     libucrt:output.obj
 0002:00000e0c       ??_C@_06OJHGLDPL@?$CInull?$CJ?$AA@ 000000014001de0c     libucrt:output.obj
 0002:00000e18       ??_C@_1O@CEDCILHN@?$AA?$CI?$AAn?$AAu?$AAl?$AAl?$AA?$CJ?$AA?$AA@ 000000014001de18     libucrt:output.obj
 0002:00000e30       ?large_power_data@?1??multiply_by_power_of_ten@__crt_strtox@@YA_NAEAUbig_integer@2@I@Z@4QBIB 000000014001de30     libucrt:input.obj
 0002:00001740       ?large_power_indices@?1??multiply_by_power_of_ten@__crt_strtox@@YA_NAEAUbig_integer@2@I@Z@4QBUunpack_index@?1??12@YA_N0I@Z@B 000000014001e740     libucrt:input.obj
 0002:000017d8       ?small_powers_of_ten@?6??multiply_by_power_of_ten@__crt_strtox@@YA_NAEAUbig_integer@2@I@Z@4QBIB 000000014001e7d8     libucrt:input.obj
 0002:00001800       ??_C@_1GE@DPGDJKLM@?$AAm?$AAi?$AAn?$AAk?$AAe?$AAr?$AAn?$AAe?$AAl?$AA?2?$AAc?$AAr?$AAt?$AAs?$AA?2?$AAu?$AAc?$AAr?$AAt?$AA?2?$AAi?$AAn?$AAc?$AA?2?$AAc?$AAo?$AAr?$AAe?$AAc?$AAr?$AAt?$AA_@ 000000014001e800     libucrt:input.obj
 0002:00001870       ??_C@_1FM@FELNCOBF@?$AA_?$AA_?$AAc?$AAr?$AAt?$AA_?$AAs?$AAt?$AAr?$AAt?$AAo?$AAx?$AA?3?$AA?3?$AAf?$AAl?$AAo?$AAa?$AAt?$AAi?$AAn?$AAg?$AA_?$AAp?$AAo?$AAi?$AAn?$AAt?$AA_?$AAv?$AAa?$AAl@ 000000014001e870     libucrt:input.obj
 0002:000018d0       ??_C@_1BG@GEMHBGAF@?$AA_?$AAi?$AAs?$AA_?$AAd?$AAo?$AAu?$AAb?$AAl?$AAe?$AA?$AA@ 000000014001e8d0     libucrt:input.obj
 0002:000018f0       ??_C@_1FK@JOJELFFO@?$AA_?$AA_?$AAc?$AAr?$AAt?$AA_?$AAs?$AAt?$AAr?$AAt?$AAo?$AAx?$AA?3?$AA?3?$AAf?$AAl?$AAo?$AAa?$AAt?$AAi?$AAn?$AAg?$AA_?$AAp?$AAo?$AAi?$AAn?$AAt?$AA_?$AAv?$AAa?$AAl@ 000000014001e8f0     libucrt:input.obj
 0002:00001950       ??_C@_1BI@BANMPGJI@?$AA?$CB?$AA_?$AAi?$AAs?$AA_?$AAd?$AAo?$AAu?$AAb?$AAl?$AAe?$AA?$AA@ 000000014001e950     libucrt:input.obj
 0002:00001970       ?constraints@?1??is_length_valid@__crt_stdio_input@@YA_NW4conversion_mode@2@W4length_modifier@2@@Z@4QAY0M@$$CBEA 000000014001e970     libucrt:input.obj
 0002:000019e8       ?inf_uppercase@?2???$parse_floating_point_possible_infinity@DV?$input_adapter_character_source@V?$stream_input_adapter@D@__crt_stdio_input@@@__crt_strtox@@_K@__crt_strtox@@YA?AW4floating_point_parse_result@1@AEADAEAV?$input_adapter_character_source@V?$stream_input_adapter@D@__crt_stdio_input@@@1@_K@Z@4QBDB 000000014001e9e8     libucrt:input.obj
 0002:000019ec       ?inf_lowercase@?2???$parse_floating_point_possible_infinity@DV?$input_adapter_character_source@V?$stream_input_adapter@D@__crt_stdio_input@@@__crt_strtox@@_K@__crt_strtox@@YA?AW4floating_point_parse_result@1@AEADAEAV?$input_adapter_character_source@V?$stream_input_adapter@D@__crt_stdio_input@@@1@_K@Z@4QBDB 000000014001e9ec     libucrt:input.obj
 0002:000019f0       ?inity_uppercase@?5???$parse_floating_point_possible_infinity@DV?$input_adapter_character_source@V?$stream_input_adapter@D@__crt_stdio_input@@@__crt_strtox@@_K@__crt_strtox@@YA?AW4floating_point_parse_result@1@AEADAEAV?$input_adapter_character_source@V?$stream_input_adapter@D@__crt_stdio_input@@@1@_K@Z@4QBDB 000000014001e9f0     libucrt:input.obj
 0002:000019f8       ?inity_lowercase@?5???$parse_floating_point_possible_infinity@DV?$input_adapter_character_source@V?$stream_input_adapter@D@__crt_stdio_input@@@__crt_strtox@@_K@__crt_strtox@@YA?AW4floating_point_parse_result@1@AEADAEAV?$input_adapter_character_source@V?$stream_input_adapter@D@__crt_stdio_input@@@1@_K@Z@4QBDB 000000014001e9f8     libucrt:input.obj
 0002:00001a00       ?uppercase@?2???$parse_floating_point_possible_nan@DV?$input_adapter_character_source@V?$stream_input_adapter@D@__crt_stdio_input@@@__crt_strtox@@_K@__crt_strtox@@YA?AW4floating_point_parse_result@1@AEADAEAV?$input_adapter_character_source@V?$stream_input_adapter@D@__crt_stdio_input@@@1@_K@Z@4QBDB 000000014001ea00     libucrt:input.obj
 0002:00001a04       ?lowercase@?2???$parse_floating_point_possible_nan@DV?$input_adapter_character_source@V?$stream_input_adapter@D@__crt_stdio_input@@@__crt_strtox@@_K@__crt_strtox@@YA?AW4floating_point_parse_result@1@AEADAEAV?$input_adapter_character_source@V?$stream_input_adapter@D@__crt_stdio_input@@@1@_K@Z@4QBDB 000000014001ea04     libucrt:input.obj
 0002:00001a08       ?inf_uppercase@?2???$parse_floating_point_possible_infinity@DV?$input_adapter_character_source@V?$string_input_adapter@D@__crt_stdio_input@@@__crt_strtox@@_K@__crt_strtox@@YA?AW4floating_point_parse_result@1@AEADAEAV?$input_adapter_character_source@V?$string_input_adapter@D@__crt_stdio_input@@@1@_K@Z@4QBDB 000000014001ea08     libucrt:input.obj
 0002:00001a0c       ?inf_lowercase@?2???$parse_floating_point_possible_infinity@DV?$input_adapter_character_source@V?$string_input_adapter@D@__crt_stdio_input@@@__crt_strtox@@_K@__crt_strtox@@YA?AW4floating_point_parse_result@1@AEADAEAV?$input_adapter_character_source@V?$string_input_adapter@D@__crt_stdio_input@@@1@_K@Z@4QBDB 000000014001ea0c     libucrt:input.obj
 0002:00001a10       ?inity_uppercase@?5???$parse_floating_point_possible_infinity@DV?$input_adapter_character_source@V?$string_input_adapter@D@__crt_stdio_input@@@__crt_strtox@@_K@__crt_strtox@@YA?AW4floating_point_parse_result@1@AEADAEAV?$input_adapter_character_source@V?$string_input_adapter@D@__crt_stdio_input@@@1@_K@Z@4QBDB 000000014001ea10     libucrt:input.obj
 0002:00001a18       ?inity_lowercase@?5???$parse_floating_point_possible_infinity@DV?$input_adapter_character_source@V?$string_input_adapter@D@__crt_stdio_input@@@__crt_strtox@@_K@__crt_strtox@@YA?AW4floating_point_parse_result@1@AEADAEAV?$input_adapter_character_source@V?$string_input_adapter@D@__crt_stdio_input@@@1@_K@Z@4QBDB 000000014001ea18     libucrt:input.obj
 0002:00001a20       ?uppercase@?2???$parse_floating_point_possible_nan@DV?$input_adapter_character_source@V?$string_input_adapter@D@__crt_stdio_input@@@__crt_strtox@@_K@__crt_strtox@@YA?AW4floating_point_parse_result@1@AEADAEAV?$input_adapter_character_source@V?$string_input_adapter@D@__crt_stdio_input@@@1@_K@Z@4QBDB 000000014001ea20     libucrt:input.obj
 0002:00001a24       ?lowercase@?2???$parse_floating_point_possible_nan@DV?$input_adapter_character_source@V?$string_input_adapter@D@__crt_stdio_input@@@__crt_strtox@@_K@__crt_strtox@@YA?AW4floating_point_parse_result@1@AEADAEAV?$input_adapter_character_source@V?$string_input_adapter@D@__crt_stdio_input@@@1@_K@Z@4QBDB 000000014001ea24     libucrt:input.obj
 0002:00001a28       ?uppercase@?1???$parse_floating_point_possible_nan_is_snan@DV?$input_adapter_character_source@V?$stream_input_adapter@D@__crt_stdio_input@@@__crt_strtox@@@__crt_strtox@@YA_NAEADAEAV?$input_adapter_character_source@V?$stream_input_adapter@D@__crt_stdio_input@@@1@@Z@4QBDB 000000014001ea28     libucrt:input.obj
 0002:00001a30       ?lowercase@?1???$parse_floating_point_possible_nan_is_snan@DV?$input_adapter_character_source@V?$stream_input_adapter@D@__crt_stdio_input@@@__crt_strtox@@@__crt_strtox@@YA_NAEADAEAV?$input_adapter_character_source@V?$stream_input_adapter@D@__crt_stdio_input@@@1@@Z@4QBDB 000000014001ea30     libucrt:input.obj
 0002:00001a38       ?uppercase@?1???$parse_floating_point_possible_nan_is_ind@DV?$input_adapter_character_source@V?$stream_input_adapter@D@__crt_stdio_input@@@__crt_strtox@@@__crt_strtox@@YA_NAEADAEAV?$input_adapter_character_source@V?$stream_input_adapter@D@__crt_stdio_input@@@1@@Z@4QBDB 000000014001ea38     libucrt:input.obj
 0002:00001a3c       ?lowercase@?1???$parse_floating_point_possible_nan_is_ind@DV?$input_adapter_character_source@V?$stream_input_adapter@D@__crt_stdio_input@@@__crt_strtox@@@__crt_strtox@@YA_NAEADAEAV?$input_adapter_character_source@V?$stream_input_adapter@D@__crt_stdio_input@@@1@@Z@4QBDB 000000014001ea3c     libucrt:input.obj
 0002:00001a40       ?uppercase@?1???$parse_floating_point_possible_nan_is_snan@DV?$input_adapter_character_source@V?$string_input_adapter@D@__crt_stdio_input@@@__crt_strtox@@@__crt_strtox@@YA_NAEADAEAV?$input_adapter_character_source@V?$string_input_adapter@D@__crt_stdio_input@@@1@@Z@4QBDB 000000014001ea40     libucrt:input.obj
 0002:00001a48       ?lowercase@?1???$parse_floating_point_possible_nan_is_snan@DV?$input_adapter_character_source@V?$string_input_adapter@D@__crt_stdio_input@@@__crt_strtox@@@__crt_strtox@@YA_NAEADAEAV?$input_adapter_character_source@V?$string_input_adapter@D@__crt_stdio_input@@@1@@Z@4QBDB 000000014001ea48     libucrt:input.obj
 0002:00001a50       ?uppercase@?1???$parse_floating_point_possible_nan_is_ind@DV?$input_adapter_character_source@V?$string_input_adapter@D@__crt_stdio_input@@@__crt_strtox@@@__crt_strtox@@YA_NAEADAEAV?$input_adapter_character_source@V?$string_input_adapter@D@__crt_stdio_input@@@1@@Z@4QBDB 000000014001ea50     libucrt:input.obj
 0002:00001a54       ?lowercase@?1???$parse_floating_point_possible_nan_is_ind@DV?$input_adapter_character_source@V?$string_input_adapter@D@__crt_stdio_input@@@__crt_strtox@@@__crt_strtox@@YA_NAEADAEAV?$input_adapter_character_source@V?$string_input_adapter@D@__crt_stdio_input@@@1@@Z@4QBDB 000000014001ea54     libucrt:input.obj
 0002:00001a60       __acrt_exception_action_table 000000014001ea60     libucrt:exception_filter.obj
 0002:00001b20       __acrt_signal_action_table_count 000000014001eb20     libucrt:exception_filter.obj
 0002:00001b28       __acrt_signal_action_first_fpe_index 000000014001eb28     libucrt:exception_filter.obj
 0002:00001b30       __acrt_signal_action_fpe_count 000000014001eb30     libucrt:exception_filter.obj
 0002:00001b38       ??_C@_1BI@BGOHAHKC@?$AAm?$AAs?$AAc?$AAo?$AAr?$AAe?$AAe?$AA?4?$AAd?$AAl?$AAl?$AA?$AA@ 000000014001eb38     libucrt:exit.obj
 0002:00001b50       ??_C@_0P@MIGLKIOC@CorExitProcess?$AA@ 000000014001eb50     libucrt:exit.obj
 0002:00001e60       ??_C@_1EG@CNNIPFIM@?$AAa?$AAp?$AAi?$AA?9?$AAm?$AAs?$AA?9?$AAw?$AAi?$AAn?$AA?9?$AAa?$AAp?$AAp?$AAm?$AAo?$AAd?$AAe?$AAl?$AA?9?$AAr?$AAu?$AAn?$AAt?$AAi?$AAm?$AAe?$AA?9?$AAl?$AA1?$AA?9?$AA1@ 000000014001ee60     libucrt:winapi_thunks.obj
 0002:00001eb0       ??_C@_1EA@JGEFHKEI@?$AAa?$AAp?$AAi?$AA?9?$AAm?$AAs?$AA?9?$AAw?$AAi?$AAn?$AA?9?$AAc?$AAo?$AAr?$AAe?$AA?9?$AAd?$AAa?$AAt?$AAe?$AAt?$AAi?$AAm?$AAe?$AA?9?$AAl?$AA1?$AA?9?$AA1?$AA?9?$AA1?$AA?$AA@ 000000014001eeb0     libucrt:winapi_thunks.obj
 0002:00001ef0       ??_C@_1DI@GCIAAENM@?$AAa?$AAp?$AAi?$AA?9?$AAm?$AAs?$AA?9?$AAw?$AAi?$AAn?$AA?9?$AAc?$AAo?$AAr?$AAe?$AA?9?$AAf?$AAi?$AAl?$AAe?$AA?9?$AAl?$AA2?$AA?9?$AA1?$AA?9?$AA1?$AA?$AA@ 000000014001eef0     libucrt:winapi_thunks.obj
 0002:00001f30       ??_C@_1EI@MPIAOHOC@?$AAa?$AAp?$AAi?$AA?9?$AAm?$AAs?$AA?9?$AAw?$AAi?$AAn?$AA?9?$AAc?$AAo?$AAr?$AAe?$AA?9?$AAl?$AAo?$AAc?$AAa?$AAl?$AAi?$AAz?$AAa?$AAt?$AAi?$AAo?$AAn?$AA?9?$AAl?$AA1?$AA?9@ 000000014001ef30     libucrt:winapi_thunks.obj
 0002:00001f80       ??_C@_1FK@FPHCKFIE@?$AAa?$AAp?$AAi?$AA?9?$AAm?$AAs?$AA?9?$AAw?$AAi?$AAn?$AA?9?$AAc?$AAo?$AAr?$AAe?$AA?9?$AAl?$AAo?$AAc?$AAa?$AAl?$AAi?$AAz?$AAa?$AAt?$AAi?$AAo?$AAn?$AA?9?$AAo?$AAb?$AAs@ 000000014001ef80     libucrt:winapi_thunks.obj
 0002:00001fe0       ??_C@_1EM@DILCGIIO@?$AAa?$AAp?$AAi?$AA?9?$AAm?$AAs?$AA?9?$AAw?$AAi?$AAn?$AA?9?$AAc?$AAo?$AAr?$AAe?$AA?9?$AAp?$AAr?$AAo?$AAc?$AAe?$AAs?$AAs?$AAt?$AAh?$AAr?$AAe?$AAa?$AAd?$AAs?$AA?9?$AAl@ 000000014001efe0     libucrt:winapi_thunks.obj
 0002:00002030       ??_C@_1DM@LNCGDDPN@?$AAa?$AAp?$AAi?$AA?9?$AAm?$AAs?$AA?9?$AAw?$AAi?$AAn?$AA?9?$AAc?$AAo?$AAr?$AAe?$AA?9?$AAs?$AAt?$AAr?$AAi?$AAn?$AAg?$AA?9?$AAl?$AA1?$AA?9?$AA1?$AA?9?$AA0?$AA?$AA@ 000000014001f030     libucrt:winapi_thunks.obj
 0002:00002070       ??_C@_1DO@FPAPJEMD@?$AAa?$AAp?$AAi?$AA?9?$AAm?$AAs?$AA?9?$AAw?$AAi?$AAn?$AA?9?$AAc?$AAo?$AAr?$AAe?$AA?9?$AAs?$AAy?$AAs?$AAi?$AAn?$AAf?$AAo?$AA?9?$AAl?$AA1?$AA?9?$AA2?$AA?9?$AA1?$AA?$AA@ 000000014001f070     libucrt:winapi_thunks.obj
 0002:000020b0       ??_C@_1DK@NDHNAHIO@?$AAa?$AAp?$AAi?$AA?9?$AAm?$AAs?$AA?9?$AAw?$AAi?$AAn?$AA?9?$AAc?$AAo?$AAr?$AAe?$AA?9?$AAw?$AAi?$AAn?$AAr?$AAt?$AA?9?$AAl?$AA1?$AA?9?$AA1?$AA?9?$AA0?$AA?$AA@ 000000014001f0b0     libucrt:winapi_thunks.obj
 0002:000020f0       ??_C@_1DM@KGHDGBCM@?$AAa?$AAp?$AAi?$AA?9?$AAm?$AAs?$AA?9?$AAw?$AAi?$AAn?$AA?9?$AAc?$AAo?$AAr?$AAe?$AA?9?$AAx?$AAs?$AAt?$AAa?$AAt?$AAe?$AA?9?$AAl?$AA2?$AA?9?$AA1?$AA?9?$AA0?$AA?$AA@ 000000014001f0f0     libucrt:winapi_thunks.obj
 0002:00002130       ??_C@_1EO@IJIOEFOH@?$AAa?$AAp?$AAi?$AA?9?$AAm?$AAs?$AA?9?$AAw?$AAi?$AAn?$AA?9?$AAr?$AAt?$AAc?$AAo?$AAr?$AAe?$AA?9?$AAn?$AAt?$AAu?$AAs?$AAe?$AAr?$AA?9?$AAw?$AAi?$AAn?$AAd?$AAo?$AAw?$AA?9@ 000000014001f130     libucrt:winapi_thunks.obj
 0002:00002180       ??_C@_1FG@HHGEKANL@?$AAa?$AAp?$AAi?$AA?9?$AAm?$AAs?$AA?9?$AAw?$AAi?$AAn?$AA?9?$AAs?$AAe?$AAc?$AAu?$AAr?$AAi?$AAt?$AAy?$AA?9?$AAs?$AAy?$AAs?$AAt?$AAe?$AAm?$AAf?$AAu?$AAn?$AAc?$AAt?$AAi@ 000000014001f180     libucrt:winapi_thunks.obj
 0002:000021e0       ??_C@_1FG@NCKKOLKO@?$AAe?$AAx?$AAt?$AA?9?$AAm?$AAs?$AA?9?$AAw?$AAi?$AAn?$AA?9?$AAk?$AAe?$AAr?$AAn?$AAe?$AAl?$AA3?$AA2?$AA?9?$AAp?$AAa?$AAc?$AAk?$AAa?$AAg?$AAe?$AA?9?$AAc?$AAu?$AAr?$AAr@ 000000014001f1e0     libucrt:winapi_thunks.obj
 0002:00002240       ??_C@_1EG@DBIOJECG@?$AAe?$AAx?$AAt?$AA?9?$AAm?$AAs?$AA?9?$AAw?$AAi?$AAn?$AA?9?$AAn?$AAt?$AAu?$AAs?$AAe?$AAr?$AA?9?$AAd?$AAi?$AAa?$AAl?$AAo?$AAg?$AAb?$AAo?$AAx?$AA?9?$AAl?$AA1?$AA?9?$AA1@ 000000014001f240     libucrt:winapi_thunks.obj
 0002:00002290       ??_C@_1EO@FIHMJCLF@?$AAe?$AAx?$AAt?$AA?9?$AAm?$AAs?$AA?9?$AAw?$AAi?$AAn?$AA?9?$AAn?$AAt?$AAu?$AAs?$AAe?$AAr?$AA?9?$AAw?$AAi?$AAn?$AAd?$AAo?$AAw?$AAs?$AAt?$AAa?$AAt?$AAi?$AAo?$AAn?$AA?9@ 000000014001f290     libucrt:winapi_thunks.obj
 0002:000022e0       ??_C@_1O@BCCLBEOE@?$AAu?$AAs?$AAe?$AAr?$AA3?$AA2?$AA?$AA@ 000000014001f2e0     libucrt:winapi_thunks.obj
 0002:000022f8       ??_C@_0BA@FHFNEAED@AreFileApisANSI?$AA@ 000000014001f2f8     libucrt:winapi_thunks.obj
 0002:00002310       ??_C@_0BA@IHGNDAEB@CompareStringEx?$AA@ 000000014001f310     libucrt:winapi_thunks.obj
 0002:00002348       ??_C@_0BE@JOGNEJCI@GetCurrentPackageId?$AA@ 000000014001f348     libucrt:winapi_thunks.obj
 0002:00002370       ??_C@_0O@KKBNKAPF@LCMapStringEx?$AA@ 000000014001f370     libucrt:winapi_thunks.obj
 0002:00002388       ??_C@_0BB@HBDEELFH@LocaleNameToLCID?$AA@ 000000014001f388     libucrt:winapi_thunks.obj
 0002:0000239c       ??_C@_03OEIAHPBN@INF?$AA@  000000014001f39c     libucrt:cvt.obj
 0002:000023a0       ??_C@_03OJHLLCGB@inf?$AA@  000000014001f3a0     libucrt:cvt.obj
 0002:000023a4       ??_C@_03LKNCIKJB@NAN?$AA@  000000014001f3a4     libucrt:cvt.obj
 0002:000023a8       ??_C@_03LHCJEHON@nan?$AA@  000000014001f3a8     libucrt:cvt.obj
 0002:000023b0       ??_C@_09OFJJIMPC@NAN?$CISNAN?$CJ?$AA@ 000000014001f3b0     libucrt:cvt.obj
 0002:000023c0       ??_C@_09IPFBKMDL@nan?$CIsnan?$CJ?$AA@ 000000014001f3c0     libucrt:cvt.obj
 0002:000023d0       ??_C@_08IKHNHAJ@NAN?$CIIND?$CJ?$AA@ 000000014001f3d0     libucrt:cvt.obj
 0002:000023e0       ??_C@_08OFCDMILK@nan?$CIind?$CJ?$AA@ 000000014001f3e0     libucrt:cvt.obj
 0002:000023ec       ??_C@_05KLBDPFGC@e?$CL000?$AA@ 000000014001f3ec     libucrt:cvt.obj
 0002:00002400       __lc_time_c                000000014001f400     libucrt:nlsdata.obj
 0002:000026c0       ??_C@_03KOEHGMDN@Sun?$AA@  000000014001f6c0     libucrt:nlsdata.obj
 0002:000026c4       ??_C@_03PDAGKDH@Mon?$AA@   000000014001f6c4     libucrt:nlsdata.obj
 0002:000026c8       ??_C@_03NAGEINEP@Tue?$AA@  000000014001f6c8     libucrt:nlsdata.obj
 0002:000026cc       ??_C@_03MHOMLAJA@Wed?$AA@  000000014001f6cc     libucrt:nlsdata.obj
 0002:000026d0       ??_C@_03IOFIKPDN@Thu?$AA@  000000014001f6d0     libucrt:nlsdata.obj
 0002:000026d4       ??_C@_03IDIOELNC@Fri?$AA@  000000014001f6d4     libucrt:nlsdata.obj
 0002:000026d8       ??_C@_03FEFJNEK@Sat?$AA@   000000014001f6d8     libucrt:nlsdata.obj
 0002:000026dc       ??_C@_06OOPIFAJ@Sunday?$AA@ 000000014001f6dc     libucrt:nlsdata.obj
 0002:000026e4       ??_C@_06JLEDEDGH@Monday?$AA@ 000000014001f6e4     libucrt:nlsdata.obj
 0002:000026f0       ??_C@_07BAAGCFCM@Tuesday?$AA@ 000000014001f6f0     libucrt:nlsdata.obj
 0002:000026f8       ??_C@_09DLIGFAKA@Wednesday?$AA@ 000000014001f6f8     libucrt:nlsdata.obj
 0002:00002708       ??_C@_08HACCIKIA@Thursday?$AA@ 000000014001f708     libucrt:nlsdata.obj
 0002:00002714       ??_C@_06JECMNKMI@Friday?$AA@ 000000014001f714     libucrt:nlsdata.obj
 0002:00002720       ??_C@_08INBOOONO@Saturday?$AA@ 000000014001f720     libucrt:nlsdata.obj
 0002:0000272c       ??_C@_03JIHJHPIE@Jan?$AA@  000000014001f72c     libucrt:nlsdata.obj
 0002:00002730       ??_C@_03HJBDCHOM@Feb?$AA@  000000014001f730     libucrt:nlsdata.obj
 0002:00002734       ??_C@_03ODNJBKGA@Mar?$AA@  000000014001f734     libucrt:nlsdata.obj
 0002:00002738       ??_C@_03LEOLGMJP@Apr?$AA@  000000014001f738     libucrt:nlsdata.obj
 0002:0000273c       ??_C@_03CNMDKL@May?$AA@    000000014001f73c     libucrt:nlsdata.obj
 0002:00002740       ??_C@_03IDFGHECI@Jun?$AA@  000000014001f740     libucrt:nlsdata.obj
 0002:00002744       ??_C@_03LBGABGKK@Jul?$AA@  000000014001f744     libucrt:nlsdata.obj
 0002:00002748       ??_C@_03IFJFEIGA@Aug?$AA@  000000014001f748     libucrt:nlsdata.obj
 0002:0000274c       ??_C@_03GGCAPAJC@Sep?$AA@  000000014001f74c     libucrt:nlsdata.obj
 0002:00002750       ??_C@_03BMAOKBAD@Oct?$AA@  000000014001f750     libucrt:nlsdata.obj
 0002:00002754       ??_C@_03JPJOFNIA@Nov?$AA@  000000014001f754     libucrt:nlsdata.obj
 0002:00002758       ??_C@_03MKABNOCG@Dec?$AA@  000000014001f758     libucrt:nlsdata.obj
 0002:00002760       ??_C@_07CGJPFGJA@January?$AA@ 000000014001f760     libucrt:nlsdata.obj
 0002:00002768       ??_C@_08GNJGEPFN@February?$AA@ 000000014001f768     libucrt:nlsdata.obj
 0002:00002774       ??_C@_05HPCKOFNC@March?$AA@ 000000014001f774     libucrt:nlsdata.obj
 0002:0000277c       ??_C@_05DMJDNLEJ@April?$AA@ 000000014001f77c     libucrt:nlsdata.obj
 0002:00002784       ??_C@_04CNLMGBGM@June?$AA@ 000000014001f784     libucrt:nlsdata.obj
 0002:0000278c       ??_C@_04MIEPOIFP@July?$AA@ 000000014001f78c     libucrt:nlsdata.obj
 0002:00002794       ??_C@_06LBBHFDDG@August?$AA@ 000000014001f794     libucrt:nlsdata.obj
 0002:000027a0       ??_C@_09BHHEALKD@September?$AA@ 000000014001f7a0     libucrt:nlsdata.obj
 0002:000027b0       ??_C@_07JJNFCEND@October?$AA@ 000000014001f7b0     libucrt:nlsdata.obj
 0002:000027b8       ??_C@_08HCHEGEOA@November?$AA@ 000000014001f7b8     libucrt:nlsdata.obj
 0002:000027c8       ??_C@_08EDHMEBNP@December?$AA@ 000000014001f7c8     libucrt:nlsdata.obj
 0002:000027d4       ??_C@_02DEDBPAFC@AM?$AA@   000000014001f7d4     libucrt:nlsdata.obj
 0002:000027d8       ??_C@_02CJNFDJBF@PM?$AA@   000000014001f7d8     libucrt:nlsdata.obj
 0002:000027e0       ??_C@_08BPBNCDIB@MM?1dd?1yy?$AA@ 000000014001f7e0     libucrt:nlsdata.obj
 0002:000027f0       ??_C@_0BE@CKGJFCPC@dddd?0?5MMMM?5dd?0?5yyyy?$AA@ 000000014001f7f0     libucrt:nlsdata.obj
 0002:00002808       ??_C@_08JCCMCCIL@HH?3mm?3ss?$AA@ 000000014001f808     libucrt:nlsdata.obj
 0002:00002818       ??_C@_17MBGCMIPB@?$AAS?$AAu?$AAn?$AA?$AA@ 000000014001f818     libucrt:nlsdata.obj
 0002:00002820       ??_C@_17KBOMKBF@?$AAM?$AAo?$AAn?$AA?$AA@ 000000014001f820     libucrt:nlsdata.obj
 0002:00002828       ??_C@_17BMKGEGOJ@?$AAT?$AAu?$AAe?$AA?$AA@ 000000014001f828     libucrt:nlsdata.obj
 0002:00002830       ??_C@_17CJEDCEPE@?$AAW?$AAe?$AAd?$AA?$AA@ 000000014001f830     libucrt:nlsdata.obj
 0002:00002838       ??_C@_17PDPHAADD@?$AAT?$AAh?$AAu?$AA?$AA@ 000000014001f838     libucrt:nlsdata.obj
 0002:00002840       ??_C@_17HFOLPPLP@?$AAF?$AAr?$AAi?$AA?$AA@ 000000014001f840     libucrt:nlsdata.obj
 0002:00002848       ??_C@_17GGIBDPIH@?$AAS?$AAa?$AAt?$AA?$AA@ 000000014001f848     libucrt:nlsdata.obj
 0002:00002850       ??_C@_1O@IHNHDHPB@?$AAS?$AAu?$AAn?$AAd?$AAa?$AAy?$AA?$AA@ 000000014001f850     libucrt:nlsdata.obj
 0002:00002860       ??_C@_1O@MMNBFLIA@?$AAM?$AAo?$AAn?$AAd?$AAa?$AAy?$AA?$AA@ 000000014001f860     libucrt:nlsdata.obj
 0002:00002870       ??_C@_1BA@ENFBFFEK@?$AAT?$AAu?$AAe?$AAs?$AAd?$AAa?$AAy?$AA?$AA@ 000000014001f870     libucrt:nlsdata.obj
 0002:00002880       ??_C@_1BE@EBOGMDOH@?$AAW?$AAe?$AAd?$AAn?$AAe?$AAs?$AAd?$AAa?$AAy?$AA?$AA@ 000000014001f880     libucrt:nlsdata.obj
 0002:00002898       ??_C@_1BC@HHMNLIHE@?$AAT?$AAh?$AAu?$AAr?$AAs?$AAd?$AAa?$AAy?$AA?$AA@ 000000014001f898     libucrt:nlsdata.obj
 0002:000028b0       ??_C@_1O@PDICJHAG@?$AAF?$AAr?$AAi?$AAd?$AAa?$AAy?$AA?$AA@ 000000014001f8b0     libucrt:nlsdata.obj
 0002:000028c0       ??_C@_1BC@ENMNNPAJ@?$AAS?$AAa?$AAt?$AAu?$AAr?$AAd?$AAa?$AAy?$AA?$AA@ 000000014001f8c0     libucrt:nlsdata.obj
 0002:000028d8       ??_C@_17DKNBKCHM@?$AAJ?$AAa?$AAn?$AA?$AA@ 000000014001f8d8     libucrt:nlsdata.obj
 0002:000028e0       ??_C@_17LMDJEKJN@?$AAF?$AAe?$AAb?$AA?$AA@ 000000014001f8e0     libucrt:nlsdata.obj
 0002:000028e8       ??_C@_17CKNLEDEC@?$AAM?$AAa?$AAr?$AA?$AA@ 000000014001f8e8     libucrt:nlsdata.obj
 0002:000028f0       ??_C@_17LFPOIHDD@?$AAA?$AAp?$AAr?$AA?$AA@ 000000014001f8f0     libucrt:nlsdata.obj
 0002:000028f8       ??_C@_17PNNKMEED@?$AAM?$AAa?$AAy?$AA?$AA@ 000000014001f8f8     libucrt:nlsdata.obj
 0002:00002900       ??_C@_17KCJGOCPB@?$AAJ?$AAu?$AAn?$AA?$AA@ 000000014001f900     libucrt:nlsdata.obj
 0002:00002908       ??_C@_17IJPCKHK@?$AAJ?$AAu?$AAl?$AA?$AA@ 000000014001f908     libucrt:nlsdata.obj
 0002:00002910       ??_C@_17ICPELBCN@?$AAA?$AAu?$AAg?$AA?$AA@ 000000014001f910     libucrt:nlsdata.obj
 0002:00002918       ??_C@_17HCHCOKMG@?$AAS?$AAe?$AAp?$AA?$AA@ 000000014001f918     libucrt:nlsdata.obj
 0002:00002920       ??_C@_17FNLKOI@?$AAO?$AAc?$AAt?$AA?$AA@ 000000014001f920     libucrt:nlsdata.obj
 0002:00002928       ??_C@_17BBDMLCIG@?$AAN?$AAo?$AAv?$AA?$AA@ 000000014001f928     libucrt:nlsdata.obj
 0002:00002930       ??_C@_17EGKACKIF@?$AAD?$AAe?$AAc?$AA?$AA@ 000000014001f930     libucrt:nlsdata.obj
 0002:00002938       ??_C@_1BA@EFMEIEBA@?$AAJ?$AAa?$AAn?$AAu?$AAa?$AAr?$AAy?$AA?$AA@ 000000014001f938     libucrt:nlsdata.obj
 0002:00002948       ??_C@_1BC@JGDDFFAM@?$AAF?$AAe?$AAb?$AAr?$AAu?$AAa?$AAr?$AAy?$AA?$AA@ 000000014001f948     libucrt:nlsdata.obj
 0002:00002960       ??_C@_1M@IKEENEDF@?$AAM?$AAa?$AAr?$AAc?$AAh?$AA?$AA@ 000000014001f960     libucrt:nlsdata.obj
 0002:00002970       ??_C@_1M@GJNLMHFD@?$AAA?$AAp?$AAr?$AAi?$AAl?$AA?$AA@ 000000014001f970     libucrt:nlsdata.obj
 0002:00002980       ??_C@_19EPFLPGAP@?$AAJ?$AAu?$AAn?$AAe?$AA?$AA@ 000000014001f980     libucrt:nlsdata.obj
 0002:00002990       ??_C@_19BIFMLPCD@?$AAJ?$AAu?$AAl?$AAy?$AA?$AA@ 000000014001f990     libucrt:nlsdata.obj
 0002:000029a0       ??_C@_1O@PAHLKOAC@?$AAA?$AAu?$AAg?$AAu?$AAs?$AAt?$AA?$AA@ 000000014001f9a0     libucrt:nlsdata.obj
 0002:000029b0       ??_C@_1BE@DKAAMBJL@?$AAS?$AAe?$AAp?$AAt?$AAe?$AAm?$AAb?$AAe?$AAr?$AA?$AA@ 000000014001f9b0     libucrt:nlsdata.obj
 0002:000029c8       ??_C@_1BA@EPANDLNG@?$AAO?$AAc?$AAt?$AAo?$AAb?$AAe?$AAr?$AA?$AA@ 000000014001f9c8     libucrt:nlsdata.obj
 0002:000029d8       ??_C@_1BC@BGLIFPF@?$AAN?$AAo?$AAv?$AAe?$AAm?$AAb?$AAe?$AAr?$AA?$AA@ 000000014001f9d8     libucrt:nlsdata.obj
 0002:000029f0       ??_C@_1BC@FEMKIFH@?$AAD?$AAe?$AAc?$AAe?$AAm?$AAb?$AAe?$AAr?$AA?$AA@ 000000014001f9f0     libucrt:nlsdata.obj
 0002:00002a04       ??_C@_15ODEHAHHF@?$AAA?$AAM?$AA?$AA@ 000000014001fa04     libucrt:nlsdata.obj
 0002:00002a0c       ??_C@_15CLMNNGEL@?$AAP?$AAM?$AA?$AA@ 000000014001fa0c     libucrt:nlsdata.obj
 0002:00002a18       ??_C@_1BC@IEBCMHCM@?$AAM?$AAM?$AA?1?$AAd?$AAd?$AA?1?$AAy?$AAy?$AA?$AA@ 000000014001fa18     libucrt:nlsdata.obj
 0002:00002a30       ??_C@_1CI@KNAKOEBC@?$AAd?$AAd?$AAd?$AAd?$AA?0?$AA?5?$AAM?$AAM?$AAM?$AAM?$AA?5?$AAd?$AAd?$AA?0?$AA?5?$AAy?$AAy?$AAy?$AAy?$AA?$AA@ 000000014001fa30     libucrt:nlsdata.obj
 0002:00002a58       ??_C@_1BC@GDGBMEMK@?$AAH?$AAH?$AA?3?$AAm?$AAm?$AA?3?$AAs?$AAs?$AA?$AA@ 000000014001fa58     libucrt:nlsdata.obj
 0002:00002a70       ??_C@_1M@BMHNFIME@?$AAe?$AAn?$AA?9?$AAU?$AAS?$AA?$AA@ 000000014001fa70     libucrt:nlsdata.obj
 0002:00002a80       __newctype                 000000014001fa80     libucrt:ctype.obj
 0002:00002d80       __newclmap                 000000014001fd80     libucrt:ctype.obj
 0002:00002f00       __newcumap                 000000014001ff00     libucrt:ctype.obj
 0002:00003080       ?ccs@?BL@???$__acrt_stdio_parse_mode@D@@YA?AU__acrt_stdio_stream_mode@@QEBD@Z@4QBDB 0000000140020080     libucrt:openfile.obj
 0002:00003084       ?utf8_encoding@?BL@???$__acrt_stdio_parse_mode@D@@YA?AU__acrt_stdio_stream_mode@@QEBD@Z@4QBDB 0000000140020084     libucrt:openfile.obj
 0002:00003090       ?utf16_encoding@?BL@???$__acrt_stdio_parse_mode@D@@YA?AU__acrt_stdio_stream_mode@@QEBD@Z@4QBDB 0000000140020090     libucrt:openfile.obj
 0002:00003098       ?unicode_encoding@?BL@???$__acrt_stdio_parse_mode@D@@YA?AU__acrt_stdio_stream_mode@@QEBD@Z@4QBDB 0000000140020098     libucrt:openfile.obj
 0002:000030c0       ??_C@_1M@HPNHIDJI@?$AAj?$AAa?$AA?9?$AAJ?$AAP?$AA?$AA@ 00000001400200c0     libucrt:mbctype.obj
 0002:000030d0       ??_C@_1M@BIBDDEMK@?$AAz?$AAh?$AA?9?$AAC?$AAN?$AA?$AA@ 00000001400200d0     libucrt:mbctype.obj
 0002:000030e0       ??_C@_1M@JLOOOEGK@?$AAk?$AAo?$AA?9?$AAK?$AAR?$AA?$AA@ 00000001400200e0     libucrt:mbctype.obj
 0002:000030f0       ??_C@_1M@CLNBBOPM@?$AAz?$AAh?$AA?9?$AAT?$AAW?$AA?$AA@ 00000001400200f0     libucrt:mbctype.obj
 0002:000030fc       ??_C@_15PJPFLCCM@?$AAu?$AAk?$AA?$AA@ 00000001400200fc     libucrt:get_qualified_locale.obj
 0002:00003f50       ??_C@_15EMKDOKLE@?$AAa?$AAr?$AA?$AA@ 0000000140020f50     libucrt:lcidtoname_downlevel.obj
 0002:00003f58       ??_C@_15KNPADPLH@?$AAb?$AAg?$AA?$AA@ 0000000140020f58     libucrt:lcidtoname_downlevel.obj
 0002:00003f60       ??_C@_15EDMHLDMO@?$AAc?$AAa?$AA?$AA@ 0000000140020f60     libucrt:lcidtoname_downlevel.obj
 0002:00003f68       ??_C@_1O@BPEAJADD@?$AAz?$AAh?$AA?9?$AAC?$AAH?$AAS?$AA?$AA@ 0000000140020f68     libucrt:lcidtoname_downlevel.obj
 0002:00003f78       ??_C@_15LJNHCMNK@?$AAc?$AAs?$AA?$AA@ 0000000140020f78     libucrt:lcidtoname_downlevel.obj
 0002:00003f80       ??_C@_15FOMCIDHG@?$AAd?$AAa?$AA?$AA@ 0000000140020f80     libucrt:lcidtoname_downlevel.obj
 0002:00003f88       ??_C@_15NBKABECB@?$AAd?$AAe?$AA?$AA@ 0000000140020f88     libucrt:lcidtoname_downlevel.obj
 0002:00003f90       ??_C@_15GHPEIIAO@?$AAe?$AAl?$AA?$AA@ 0000000140020f90     libucrt:lcidtoname_downlevel.obj
 0002:00003f98       ??_C@_15MNPNEAIF@?$AAe?$AAn?$AA?$AA@ 0000000140020f98     libucrt:lcidtoname_downlevel.obj
 0002:00003fa0       ??_C@_15GPIOMPMH@?$AAe?$AAs?$AA?$AA@ 0000000140020fa0     libucrt:lcidtoname_downlevel.obj
 0002:00003fa8       ??_C@_15NGLOAKJC@?$AAf?$AAi?$AA?$AA@ 0000000140020fa8     libucrt:lcidtoname_downlevel.obj
 0002:00003fb0       ??_C@_15FBKGNKAM@?$AAf?$AAr?$AA?$AA@ 0000000140020fb0     libucrt:lcidtoname_downlevel.obj
 0002:00003fb8       ??_C@_15KGGCNEFK@?$AAh?$AAe?$AA?$AA@ 0000000140020fb8     libucrt:lcidtoname_downlevel.obj
 0002:00003fc0       ??_C@_15PGHLIDMF@?$AAh?$AAu?$AA?$AA@ 0000000140020fc0     libucrt:lcidtoname_downlevel.obj
 0002:00003fc8       ??_C@_15BIEMAPLM@?$AAi?$AAs?$AA?$AA@ 0000000140020fc8     libucrt:lcidtoname_downlevel.obj
 0002:00003fd0       ??_C@_15IFJLDHAF@?$AAi?$AAt?$AA?$AA@ 0000000140020fd0     libucrt:lcidtoname_downlevel.obj
 0002:00003fd8       ??_C@_15GEMIOCAG@?$AAj?$AAa?$AA?$AA@ 0000000140020fd8     libucrt:lcidtoname_downlevel.obj
 0002:00003fe0       ??_C@_15EPELEGJA@?$AAk?$AAo?$AA?$AA@ 0000000140020fe0     libucrt:lcidtoname_downlevel.obj
 0002:00003fe8       ??_C@_15NDDHIMN@?$AAn?$AAl?$AA?$AA@ 0000000140020fe8     libucrt:lcidtoname_downlevel.obj
 0002:00003ff0       ??_C@_15BPIGNHCD@?$AAn?$AAo?$AA?$AA@ 0000000140020ff0     libucrt:lcidtoname_downlevel.obj
 0002:00003ff8       ??_C@_15DEOPBLCG@?$AAp?$AAl?$AA?$AA@ 0000000140020ff8     libucrt:lcidtoname_downlevel.obj
 0002:00004000       ??_C@_15KBECGEFG@?$AAp?$AAt?$AA?$AA@ 0000000140021000     libucrt:lcidtoname_downlevel.obj
 0002:00004008       ??_C@_15GLJCBFMD@?$AAr?$AAo?$AA?$AA@ 0000000140021008     libucrt:lcidtoname_downlevel.obj
 0002:00004010       ??_C@_15FEDGKCDI@?$AAr?$AAu?$AA?$AA@ 0000000140021010     libucrt:lcidtoname_downlevel.obj
 0002:00004018       ??_C@_15GLKMLLHM@?$AAh?$AAr?$AA?$AA@ 0000000140021018     libucrt:lcidtoname_downlevel.obj
 0002:00004020       ??_C@_15CPKMFBDB@?$AAs?$AAk?$AA?$AA@ 0000000140021020     libucrt:lcidtoname_downlevel.obj
 0002:00004028       ??_C@_15BAAIOGMK@?$AAs?$AAq?$AA?$AA@ 0000000140021028     libucrt:lcidtoname_downlevel.obj
 0002:00004030       ??_C@_15INNPNOHD@?$AAs?$AAv?$AA?$AA@ 0000000140021030     libucrt:lcidtoname_downlevel.obj
 0002:00004038       ??_C@_15CABMMOGH@?$AAt?$AAh?$AA?$AA@ 0000000140021038     libucrt:lcidtoname_downlevel.obj
 0002:00004040       ??_C@_15BPLIHJJM@?$AAt?$AAr?$AA?$AA@ 0000000140021040     libucrt:lcidtoname_downlevel.obj
 0002:00004048       ??_C@_15NEOEKKDJ@?$AAu?$AAr?$AA?$AA@ 0000000140021048     libucrt:lcidtoname_downlevel.obj
 0002:00004050       ??_C@_15NFICGAJK@?$AAi?$AAd?$AA?$AA@ 0000000140021050     libucrt:lcidtoname_downlevel.obj
 0002:00004058       ??_C@_15HPJPHDM@?$AAb?$AAe?$AA?$AA@ 0000000140021058     libucrt:lcidtoname_downlevel.obj
 0002:00004060       ??_C@_15LCHLGJII@?$AAs?$AAl?$AA?$AA@ 0000000140021060     libucrt:lcidtoname_downlevel.obj
 0002:00004068       ??_C@_15PCFJPHHO@?$AAe?$AAt?$AA?$AA@ 0000000140021068     libucrt:lcidtoname_downlevel.obj
 0002:00004070       ??_C@_15HPFPGODN@?$AAl?$AAv?$AA?$AA@ 0000000140021070     libucrt:lcidtoname_downlevel.obj
 0002:00004078       ??_C@_15NFFGKGLG@?$AAl?$AAt?$AA?$AA@ 0000000140021078     libucrt:lcidtoname_downlevel.obj
 0002:00004080       ??_C@_15BDAKCCHN@?$AAf?$AAa?$AA?$AA@ 0000000140021080     libucrt:lcidtoname_downlevel.obj
 0002:00004088       ??_C@_15NFGIAIAJ@?$AAv?$AAi?$AA?$AA@ 0000000140021088     libucrt:lcidtoname_downlevel.obj
 0002:00004090       ??_C@_15LMKNDMHN@?$AAh?$AAy?$AA?$AA@ 0000000140021090     libucrt:lcidtoname_downlevel.obj
 0002:00004098       ??_C@_15IJBHMCFL@?$AAa?$AAz?$AA?$AA@ 0000000140021098     libucrt:lcidtoname_downlevel.obj
 0002:000040a0       ??_C@_15EKOFJABL@?$AAe?$AAu?$AA?$AA@ 00000001400210a0     libucrt:lcidtoname_downlevel.obj
 0002:000040a8       ??_C@_15BGHADCNK@?$AAm?$AAk?$AA?$AA@ 00000001400210a8     libucrt:lcidtoname_downlevel.obj
 0002:000040b0       ??_C@_15JDNICKHM@?$AAa?$AAf?$AA?$AA@ 00000001400210b0     libucrt:lcidtoname_downlevel.obj
 0002:000040b8       ??_C@_15KPJEDBKD@?$AAk?$AAa?$AA?$AA@ 00000001400210b8     libucrt:lcidtoname_downlevel.obj
 0002:000040c0       ??_C@_15PDNFFFEO@?$AAf?$AAo?$AA?$AA@ 00000001400210c0     libucrt:lcidtoname_downlevel.obj
 0002:000040c8       ??_C@_15OMLEGLOC@?$AAh?$AAi?$AA?$AA@ 00000001400210c8     libucrt:lcidtoname_downlevel.obj
 0002:000040d0       ??_C@_15IDNNENKK@?$AAm?$AAs?$AA?$AA@ 00000001400210d0     libucrt:lcidtoname_downlevel.obj
 0002:000040d8       ??_C@_15MACJNBMH@?$AAk?$AAk?$AA?$AA@ 00000001400210d8     libucrt:lcidtoname_downlevel.obj
 0002:000040e0       ??_C@_15DKDJEOND@?$AAk?$AAy?$AA?$AA@ 00000001400210e0     libucrt:lcidtoname_downlevel.obj
 0002:000040e8       ??_C@_15DFGDLJBG@?$AAs?$AAw?$AA?$AA@ 00000001400210e8     libucrt:lcidtoname_downlevel.obj
 0002:000040f0       ??_C@_15BBFAICNG@?$AAu?$AAz?$AA?$AA@ 00000001400210f0     libucrt:lcidtoname_downlevel.obj
 0002:000040f8       ??_C@_15DKNDCGEA@?$AAt?$AAt?$AA?$AA@ 00000001400210f8     libucrt:lcidtoname_downlevel.obj
 0002:00004100       ??_C@_15MGIFMDPL@?$AAp?$AAa?$AA?$AA@ 0000000140021100     libucrt:lcidtoname_downlevel.obj
 0002:00004108       ??_C@_15HCNDBBA@?$AAg?$AAu?$AA?$AA@ 0000000140021108     libucrt:lcidtoname_downlevel.obj
 0002:00004110       ??_C@_15FNBEIBON@?$AAt?$AAa?$AA?$AA@ 0000000140021110     libucrt:lcidtoname_downlevel.obj
 0002:00004118       ??_C@_15NCHGBGLK@?$AAt?$AAe?$AA?$AA@ 0000000140021118     libucrt:lcidtoname_downlevel.obj
 0002:00004120       ??_C@_15PHPHCBPF@?$AAk?$AAn?$AA?$AA@ 0000000140021120     libucrt:lcidtoname_downlevel.obj
 0002:00004128       ??_C@_15DLGBCKMP@?$AAm?$AAr?$AA?$AA@ 0000000140021128     libucrt:lcidtoname_downlevel.obj
 0002:00004130       ??_C@_15EABBLBFF@?$AAs?$AAa?$AA?$AA@ 0000000140021130     libucrt:lcidtoname_downlevel.obj
 0002:00004138       ??_C@_15CBKOMCOI@?$AAm?$AAn?$AA?$AA@ 0000000140021138     libucrt:lcidtoname_downlevel.obj
 0002:00004140       ??_C@_15CKDMCJAF@?$AAg?$AAl?$AA?$AA@ 0000000140021140     libucrt:lcidtoname_downlevel.obj
 0002:00004148       ??_C@_17CNJFBPG@?$AAk?$AAo?$AAk?$AA?$AA@ 0000000140021148     libucrt:lcidtoname_downlevel.obj
 0002:00004150       ??_C@_17FFBJICPL@?$AAs?$AAy?$AAr?$AA?$AA@ 0000000140021150     libucrt:lcidtoname_downlevel.obj
 0002:00004158       ??_C@_17KPNDCPAF@?$AAd?$AAi?$AAv?$AA?$AA@ 0000000140021158     libucrt:lcidtoname_downlevel.obj
 0002:00004160       ??_C@_11LOCGONAA@?$AA?$AA@ 0000000140021160     libucrt:lcidtoname_downlevel.obj
 0002:00004168       ??_C@_1M@OKAHONE@?$AAa?$AAr?$AA?9?$AAS?$AAA?$AA?$AA@ 0000000140021168     libucrt:lcidtoname_downlevel.obj
 0002:00004178       ??_C@_1M@FFFIGIGK@?$AAb?$AAg?$AA?9?$AAB?$AAG?$AA?$AA@ 0000000140021178     libucrt:lcidtoname_downlevel.obj
 0002:00004188       ??_C@_1M@BJNKEDC@?$AAc?$AAa?$AA?9?$AAE?$AAS?$AA?$AA@ 0000000140021188     libucrt:lcidtoname_downlevel.obj
 0002:00004198       ??_C@_1M@IJJHFJHA@?$AAc?$AAs?$AA?9?$AAC?$AAZ?$AA?$AA@ 0000000140021198     libucrt:lcidtoname_downlevel.obj
 0002:000041a8       ??_C@_1M@CLPEOBGI@?$AAd?$AAa?$AA?9?$AAD?$AAK?$AA?$AA@ 00000001400211a8     libucrt:lcidtoname_downlevel.obj
 0002:000041b8       ??_C@_1M@MCMADGCB@?$AAd?$AAe?$AA?9?$AAD?$AAE?$AA?$AA@ 00000001400211b8     libucrt:lcidtoname_downlevel.obj
 0002:000041c8       ??_C@_1M@OOCKEMAM@?$AAe?$AAl?$AA?9?$AAG?$AAR?$AA?$AA@ 00000001400211c8     libucrt:lcidtoname_downlevel.obj
 0002:000041d8       ??_C@_1M@DDNJFGID@?$AAf?$AAi?$AA?9?$AAF?$AAI?$AA?$AA@ 00000001400211d8     libucrt:lcidtoname_downlevel.obj
 0002:000041e8       ??_C@_1M@GLIPPMAC@?$AAf?$AAr?$AA?9?$AAF?$AAR?$AA?$AA@ 00000001400211e8     libucrt:lcidtoname_downlevel.obj
 0002:000041f8       ??_C@_1M@GFMCHPE@?$AAh?$AAe?$AA?9?$AAI?$AAL?$AA?$AA@ 00000001400211f8     libucrt:lcidtoname_downlevel.obj
 0002:00004208       ??_C@_1M@MHLPGNKM@?$AAh?$AAu?$AA?9?$AAH?$AAU?$AA?$AA@ 0000000140021208     libucrt:lcidtoname_downlevel.obj
 0002:00004218       ??_C@_1M@LPDDNNPN@?$AAi?$AAs?$AA?9?$AAI?$AAS?$AA?$AA@ 0000000140021218     libucrt:lcidtoname_downlevel.obj
 0002:00004228       ??_C@_1M@MADIPODN@?$AAi?$AAt?$AA?9?$AAI?$AAT?$AA?$AA@ 0000000140021228     libucrt:lcidtoname_downlevel.obj
 0002:00004238       ??_C@_1M@IHBJJGG@?$AAn?$AAl?$AA?9?$AAN?$AAL?$AA?$AA@ 0000000140021238     libucrt:lcidtoname_downlevel.obj
 0002:00004248       ??_C@_1M@EANAGDL@?$AAn?$AAb?$AA?9?$AAN?$AAO?$AA?$AA@ 0000000140021248     libucrt:lcidtoname_downlevel.obj
 0002:00004258       ??_C@_1M@NEIEMEGP@?$AAp?$AAl?$AA?9?$AAP?$AAL?$AA?$AA@ 0000000140021258     libucrt:lcidtoname_downlevel.obj
 0002:00004268       ??_C@_1M@BOCFIGEP@?$AAp?$AAt?$AA?9?$AAB?$AAR?$AA?$AA@ 0000000140021268     libucrt:lcidtoname_downlevel.obj
 0002:00004278       ??_C@_1M@IMPFOPBG@?$AAr?$AAo?$AA?9?$AAR?$AAO?$AA?$AA@ 0000000140021278     libucrt:lcidtoname_downlevel.obj
 0002:00004288       ??_C@_1M@IDNNEJMM@?$AAr?$AAu?$AA?9?$AAR?$AAU?$AA?$AA@ 0000000140021288     libucrt:lcidtoname_downlevel.obj
 0002:00004298       ??_C@_1M@LILEEOGM@?$AAh?$AAr?$AA?9?$AAH?$AAR?$AA?$AA@ 0000000140021298     libucrt:lcidtoname_downlevel.obj
 0002:000042a8       ??_C@_1M@FKIFEHPB@?$AAs?$AAk?$AA?9?$AAS?$AAK?$AA?$AA@ 00000001400212a8     libucrt:lcidtoname_downlevel.obj
 0002:000042b8       ??_C@_1M@LJMAMNPJ@?$AAs?$AAq?$AA?9?$AAA?$AAL?$AA?$AA@ 00000001400212b8     libucrt:lcidtoname_downlevel.obj
 0002:000042c8       ??_C@_1M@GIAKDKJK@?$AAs?$AAv?$AA?9?$AAS?$AAE?$AA?$AA@ 00000001400212c8     libucrt:lcidtoname_downlevel.obj
 0002:000042d8       ??_C@_1M@MKJKIKCL@?$AAt?$AAh?$AA?9?$AAT?$AAH?$AA?$AA@ 00000001400212d8     libucrt:lcidtoname_downlevel.obj
 0002:000042e8       ??_C@_1M@MFLCCMPB@?$AAt?$AAr?$AA?9?$AAT?$AAR?$AA?$AA@ 00000001400212e8     libucrt:lcidtoname_downlevel.obj
 0002:000042f8       ??_C@_1M@OIJHDKJN@?$AAu?$AAr?$AA?9?$AAP?$AAK?$AA?$AA@ 00000001400212f8     libucrt:lcidtoname_downlevel.obj
 0002:00004308       ??_C@_1M@LHIPCIEK@?$AAi?$AAd?$AA?9?$AAI?$AAD?$AA?$AA@ 0000000140021308     libucrt:lcidtoname_downlevel.obj
 0002:00004318       ??_C@_1M@MFMOBGI@?$AAu?$AAk?$AA?9?$AAU?$AAA?$AA?$AA@ 0000000140021318     libucrt:lcidtoname_downlevel.obj
 0002:00004328       ??_C@_1M@OBGLJIPL@?$AAb?$AAe?$AA?9?$AAB?$AAY?$AA?$AA@ 0000000140021328     libucrt:lcidtoname_downlevel.obj
 0002:00004338       ??_C@_1M@BCFAJEAD@?$AAs?$AAl?$AA?9?$AAS?$AAI?$AA?$AA@ 0000000140021338     libucrt:lcidtoname_downlevel.obj
 0002:00004348       ??_C@_1M@FKFFEDDN@?$AAe?$AAt?$AA?9?$AAE?$AAE?$AA?$AA@ 0000000140021348     libucrt:lcidtoname_downlevel.obj
 0002:00004358       ??_C@_1M@KGKKAACI@?$AAl?$AAv?$AA?9?$AAL?$AAV?$AA?$AA@ 0000000140021358     libucrt:lcidtoname_downlevel.obj
 0002:00004368       ??_C@_1M@IFGBIJO@?$AAl?$AAt?$AA?9?$AAL?$AAT?$AA?$AA@ 0000000140021368     libucrt:lcidtoname_downlevel.obj
 0002:00004378       ??_C@_1M@FGEAHEDM@?$AAf?$AAa?$AA?9?$AAI?$AAR?$AA?$AA@ 0000000140021378     libucrt:lcidtoname_downlevel.obj
 0002:00004388       ??_C@_1M@KBMAIBFN@?$AAv?$AAi?$AA?9?$AAV?$AAN?$AA?$AA@ 0000000140021388     libucrt:lcidtoname_downlevel.obj
 0002:00004398       ??_C@_1M@GPCBKDJK@?$AAh?$AAy?$AA?9?$AAA?$AAM?$AA?$AA@ 0000000140021398     libucrt:lcidtoname_downlevel.obj
 0002:000043a8       ??_C@_1BG@BECMDDJB@?$AAa?$AAz?$AA?9?$AAA?$AAZ?$AA?9?$AAL?$AAa?$AAt?$AAn?$AA?$AA@ 00000001400213a8     libucrt:lcidtoname_downlevel.obj
 0002:000043c0       ??_C@_1M@MAOFCAEA@?$AAe?$AAu?$AA?9?$AAE?$AAS?$AA?$AA@ 00000001400213c0     libucrt:lcidtoname_downlevel.obj
 0002:000043d0       ??_C@_1M@IGHABKPI@?$AAm?$AAk?$AA?9?$AAM?$AAK?$AA?$AA@ 00000001400213d0     libucrt:lcidtoname_downlevel.obj
 0002:000043e0       ??_C@_1M@IAIGNEJG@?$AAt?$AAn?$AA?9?$AAZ?$AAA?$AA?$AA@ 00000001400213e0     libucrt:lcidtoname_downlevel.obj
 0002:000043f0       ??_C@_1M@IIJCOJFA@?$AAx?$AAh?$AA?9?$AAZ?$AAA?$AA?$AA@ 00000001400213f0     libucrt:lcidtoname_downlevel.obj
 0002:00004400       ??_C@_1M@LGPJHNJH@?$AAz?$AAu?$AA?9?$AAZ?$AAA?$AA?$AA@ 0000000140021400     libucrt:lcidtoname_downlevel.obj
 0002:00004410       ??_C@_1M@HOKAOIO@?$AAa?$AAf?$AA?9?$AAZ?$AAA?$AA?$AA@ 0000000140021410     libucrt:lcidtoname_downlevel.obj
 0002:00004420       ??_C@_1M@DPCLHLIE@?$AAk?$AAa?$AA?9?$AAG?$AAE?$AA?$AA@ 0000000140021420     libucrt:lcidtoname_downlevel.obj
 0002:00004430       ??_C@_1M@BLKMHJBI@?$AAf?$AAo?$AA?9?$AAF?$AAO?$AA?$AA@ 0000000140021430     libucrt:lcidtoname_downlevel.obj
 0002:00004440       ??_C@_1M@LGGJAPPB@?$AAh?$AAi?$AA?9?$AAI?$AAN?$AA?$AA@ 0000000140021440     libucrt:lcidtoname_downlevel.obj
 0002:00004450       ??_C@_1M@FIKPIHFE@?$AAm?$AAt?$AA?9?$AAM?$AAT?$AA?$AA@ 0000000140021450     libucrt:lcidtoname_downlevel.obj
 0002:00004460       ??_C@_1M@HEGGPBFA@?$AAs?$AAe?$AA?9?$AAN?$AAO?$AA?$AA@ 0000000140021460     libucrt:lcidtoname_downlevel.obj
 0002:00004470       ??_C@_1M@EIBJEEPA@?$AAm?$AAs?$AA?9?$AAM?$AAY?$AA?$AA@ 0000000140021470     libucrt:lcidtoname_downlevel.obj
 0002:00004480       ??_C@_1M@FHLBGMPP@?$AAk?$AAk?$AA?9?$AAK?$AAZ?$AA?$AA@ 0000000140021480     libucrt:lcidtoname_downlevel.obj
 0002:00004490       ??_C@_1M@NGJJLCGI@?$AAk?$AAy?$AA?9?$AAK?$AAG?$AA?$AA@ 0000000140021490     libucrt:lcidtoname_downlevel.obj
 0002:000044a0       ??_C@_1M@GIENNBFC@?$AAs?$AAw?$AA?9?$AAK?$AAE?$AA?$AA@ 00000001400214a0     libucrt:lcidtoname_downlevel.obj
 0002:000044b0       ??_C@_1BG@NDGMJIMJ@?$AAu?$AAz?$AA?9?$AAU?$AAZ?$AA?9?$AAL?$AAa?$AAt?$AAn?$AA?$AA@ 00000001400214b0     libucrt:lcidtoname_downlevel.obj
 0002:000044c8       ??_C@_1M@IDCCIHBC@?$AAt?$AAt?$AA?9?$AAR?$AAU?$AA?$AA@ 00000001400214c8     libucrt:lcidtoname_downlevel.obj
 0002:000044d8       ??_C@_1M@LOICPMOJ@?$AAb?$AAn?$AA?9?$AAI?$AAN?$AA?$AA@ 00000001400214d8     libucrt:lcidtoname_downlevel.obj
 0002:000044e8       ??_C@_1M@KPKKNEAH@?$AAp?$AAa?$AA?9?$AAI?$AAN?$AA?$AA@ 00000001400214e8     libucrt:lcidtoname_downlevel.obj
 0002:000044f8       ??_C@_1M@PJGPPBOG@?$AAg?$AAu?$AA?9?$AAI?$AAN?$AA?$AA@ 00000001400214f8     libucrt:lcidtoname_downlevel.obj
 0002:00004508       ??_C@_1M@KMKMOPHI@?$AAt?$AAa?$AA?9?$AAI?$AAN?$AA?$AA@ 0000000140021508     libucrt:lcidtoname_downlevel.obj
 0002:00004518       ??_C@_1M@KFEHEPAC@?$AAt?$AAe?$AA?9?$AAI?$AAN?$AA?$AA@ 0000000140021518     libucrt:lcidtoname_downlevel.obj
 0002:00004528       ??_C@_1M@CDCLMGHI@?$AAk?$AAn?$AA?9?$AAI?$AAN?$AA?$AA@ 0000000140021528     libucrt:lcidtoname_downlevel.obj
 0002:00004538       ??_C@_1M@MIODLDKF@?$AAm?$AAl?$AA?9?$AAI?$AAN?$AA?$AA@ 0000000140021538     libucrt:lcidtoname_downlevel.obj
 0002:00004548       ??_C@_1M@PBIEACPO@?$AAm?$AAr?$AA?9?$AAI?$AAN?$AA?$AA@ 0000000140021548     libucrt:lcidtoname_downlevel.obj
 0002:00004558       ??_C@_1M@NIDEAGPH@?$AAs?$AAa?$AA?9?$AAI?$AAN?$AA?$AA@ 0000000140021558     libucrt:lcidtoname_downlevel.obj
 0002:00004568       ??_C@_1M@FHIHCBIO@?$AAm?$AAn?$AA?9?$AAM?$AAN?$AA?$AA@ 0000000140021568     libucrt:lcidtoname_downlevel.obj
 0002:00004578       ??_C@_1M@JAIJPENP@?$AAc?$AAy?$AA?9?$AAG?$AAB?$AA?$AA@ 0000000140021578     libucrt:lcidtoname_downlevel.obj
 0002:00004588       ??_C@_1M@PHGFBEPN@?$AAg?$AAl?$AA?9?$AAE?$AAS?$AA?$AA@ 0000000140021588     libucrt:lcidtoname_downlevel.obj
 0002:00004598       ??_C@_1O@KPIPDNCP@?$AAk?$AAo?$AAk?$AA?9?$AAI?$AAN?$AA?$AA@ 0000000140021598     libucrt:lcidtoname_downlevel.obj
 0002:000045a8       ??_C@_1O@KNHJLDJA@?$AAs?$AAy?$AAr?$AA?9?$AAS?$AAY?$AA?$AA@ 00000001400215a8     libucrt:lcidtoname_downlevel.obj
 0002:000045b8       ??_C@_1O@MKEKBLAH@?$AAd?$AAi?$AAv?$AA?9?$AAM?$AAV?$AA?$AA@ 00000001400215b8     libucrt:lcidtoname_downlevel.obj
 0002:000045c8       ??_C@_1O@OHDCKDDF@?$AAq?$AAu?$AAz?$AA?9?$AAB?$AAO?$AA?$AA@ 00000001400215c8     libucrt:lcidtoname_downlevel.obj
 0002:000045d8       ??_C@_1M@LEPJNLFD@?$AAn?$AAs?$AA?9?$AAZ?$AAA?$AA?$AA@ 00000001400215d8     libucrt:lcidtoname_downlevel.obj
 0002:000045e8       ??_C@_1M@OMLEIIJB@?$AAm?$AAi?$AA?9?$AAN?$AAZ?$AA?$AA@ 00000001400215e8     libucrt:lcidtoname_downlevel.obj
 0002:000045f8       ??_C@_1M@PMPEAILG@?$AAa?$AAr?$AA?9?$AAI?$AAQ?$AA?$AA@ 00000001400215f8     libucrt:lcidtoname_downlevel.obj
 0002:00004608       ??_C@_1M@CNKPNOEE@?$AAd?$AAe?$AA?9?$AAC?$AAH?$AA?$AA@ 0000000140021608     libucrt:lcidtoname_downlevel.obj
 0002:00004618       ??_C@_1M@LKMGMLKO@?$AAe?$AAn?$AA?9?$AAG?$AAB?$AA?$AA@ 0000000140021618     libucrt:lcidtoname_downlevel.obj
 0002:00004628       ??_C@_1M@PGKJFFGL@?$AAe?$AAs?$AA?9?$AAM?$AAX?$AA?$AA@ 0000000140021628     libucrt:lcidtoname_downlevel.obj
 0002:00004638       ??_C@_1M@DNNANBDC@?$AAf?$AAr?$AA?9?$AAB?$AAE?$AA?$AA@ 0000000140021638     libucrt:lcidtoname_downlevel.obj
 0002:00004648       ??_C@_1M@HLGMDFHM@?$AAi?$AAt?$AA?9?$AAC?$AAH?$AA?$AA@ 0000000140021648     libucrt:lcidtoname_downlevel.obj
 0002:00004658       ??_C@_1M@CLLBGJH@?$AAn?$AAl?$AA?9?$AAB?$AAE?$AA?$AA@ 0000000140021658     libucrt:lcidtoname_downlevel.obj
 0002:00004668       ??_C@_1M@BODBOGLF@?$AAn?$AAn?$AA?9?$AAN?$AAO?$AA?$AA@ 0000000140021668     libucrt:lcidtoname_downlevel.obj
 0002:00004678       ??_C@_1M@HFFAHKAD@?$AAp?$AAt?$AA?9?$AAP?$AAT?$AA?$AA@ 0000000140021678     libucrt:lcidtoname_downlevel.obj
 0002:00004688       ??_C@_1BG@LNOAKHIE@?$AAs?$AAr?$AA?9?$AAS?$AAP?$AA?9?$AAL?$AAa?$AAt?$AAn?$AA?$AA@ 0000000140021688     libucrt:lcidtoname_downlevel.obj
 0002:000046a0       ??_C@_1M@HBMHBGAK@?$AAs?$AAv?$AA?9?$AAF?$AAI?$AA?$AA@ 00000001400216a0     libucrt:lcidtoname_downlevel.obj
 0002:000046b0       ??_C@_1BG@DGCJGJBE@?$AAa?$AAz?$AA?9?$AAA?$AAZ?$AA?9?$AAC?$AAy?$AAr?$AAl?$AA?$AA@ 00000001400216b0     libucrt:lcidtoname_downlevel.obj
 0002:000046c8       ??_C@_1M@KEJDAAHB@?$AAs?$AAe?$AA?9?$AAS?$AAE?$AA?$AA@ 00000001400216c8     libucrt:lcidtoname_downlevel.obj
 0002:000046d8       ??_C@_1M@HEIBJJAD@?$AAm?$AAs?$AA?9?$AAB?$AAN?$AA?$AA@ 00000001400216d8     libucrt:lcidtoname_downlevel.obj
 0002:000046e8       ??_C@_1BG@PBGJMCEM@?$AAu?$AAz?$AA?9?$AAU?$AAZ?$AA?9?$AAC?$AAy?$AAr?$AAl?$AA?$AA@ 00000001400216e8     libucrt:lcidtoname_downlevel.obj
 0002:00004700       ??_C@_1O@LAOBCMDF@?$AAq?$AAu?$AAz?$AA?9?$AAE?$AAC?$AA?$AA@ 0000000140021700     libucrt:lcidtoname_downlevel.obj
 0002:00004710       ??_C@_1M@POEEMAIO@?$AAa?$AAr?$AA?9?$AAE?$AAG?$AA?$AA@ 0000000140021710     libucrt:lcidtoname_downlevel.obj
 0002:00004720       ??_C@_1M@EFAKDEDL@?$AAz?$AAh?$AA?9?$AAH?$AAK?$AA?$AA@ 0000000140021720     libucrt:lcidtoname_downlevel.obj
 0002:00004730       ??_C@_1M@HKKIJHGI@?$AAd?$AAe?$AA?9?$AAA?$AAT?$AA?$AA@ 0000000140021730     libucrt:lcidtoname_downlevel.obj
 0002:00004740       ??_C@_1M@KBFBEHJF@?$AAe?$AAn?$AA?9?$AAA?$AAU?$AA?$AA@ 0000000140021740     libucrt:lcidtoname_downlevel.obj
 0002:00004750       ??_C@_1M@MNPLFAAH@?$AAe?$AAs?$AA?9?$AAE?$AAS?$AA?$AA@ 0000000140021750     libucrt:lcidtoname_downlevel.obj
 0002:00004760       ??_C@_1M@HJOOJFMA@?$AAf?$AAr?$AA?9?$AAC?$AAA?$AA?$AA@ 0000000140021760     libucrt:lcidtoname_downlevel.obj
 0002:00004770       ??_C@_1BG@JPOFPNAB@?$AAs?$AAr?$AA?9?$AAS?$AAP?$AA?9?$AAC?$AAy?$AAr?$AAl?$AA?$AA@ 0000000140021770     libucrt:lcidtoname_downlevel.obj
 0002:00004788       ??_C@_1M@LNFOCMOB@?$AAs?$AAe?$AA?9?$AAF?$AAI?$AA?$AA@ 0000000140021788     libucrt:lcidtoname_downlevel.obj
 0002:00004798       ??_C@_1O@MGJBOAMB@?$AAq?$AAu?$AAz?$AA?9?$AAP?$AAE?$AA?$AA@ 0000000140021798     libucrt:lcidtoname_downlevel.obj
 0002:000047a8       ??_C@_1M@GJINLBOK@?$AAa?$AAr?$AA?9?$AAL?$AAY?$AA?$AA@ 00000001400217a8     libucrt:lcidtoname_downlevel.obj
 0002:000047b8       ??_C@_1M@GGMNHJNL@?$AAz?$AAh?$AA?9?$AAS?$AAG?$AA?$AA@ 00000001400217b8     libucrt:lcidtoname_downlevel.obj
 0002:000047c8       ??_C@_1M@HOIKODND@?$AAd?$AAe?$AA?9?$AAL?$AAU?$AA?$AA@ 00000001400217c8     libucrt:lcidtoname_downlevel.obj
 0002:000047d8       ??_C@_1M@DDOCCGFG@?$AAe?$AAn?$AA?9?$AAC?$AAA?$AA?$AA@ 00000001400217d8     libucrt:lcidtoname_downlevel.obj
 0002:000047e8       ??_C@_1M@BNOEMJLF@?$AAe?$AAs?$AA?9?$AAG?$AAT?$AA?$AA@ 00000001400217e8     libucrt:lcidtoname_downlevel.obj
 0002:000047f8       ??_C@_1M@EOGNKEK@?$AAf?$AAr?$AA?9?$AAC?$AAH?$AA?$AA@ 00000001400217f8     libucrt:lcidtoname_downlevel.obj
 0002:00004808       ??_C@_1M@FLIDJFHL@?$AAh?$AAr?$AA?9?$AAB?$AAA?$AA?$AA@ 0000000140021808     libucrt:lcidtoname_downlevel.obj
 0002:00004818       ??_C@_1O@FMCELNAJ@?$AAs?$AAm?$AAj?$AA?9?$AAN?$AAO?$AA?$AA@ 0000000140021818     libucrt:lcidtoname_downlevel.obj
 0002:00004828       ??_C@_1M@JHGLJMGJ@?$AAa?$AAr?$AA?9?$AAD?$AAZ?$AA?$AA@ 0000000140021828     libucrt:lcidtoname_downlevel.obj
 0002:00004838       ??_C@_1M@JKKFDCNP@?$AAz?$AAh?$AA?9?$AAM?$AAO?$AA?$AA@ 0000000140021838     libucrt:lcidtoname_downlevel.obj
 0002:00004848       ??_C@_1M@GEEFALPE@?$AAd?$AAe?$AA?9?$AAL?$AAI?$AA?$AA@ 0000000140021848     libucrt:lcidtoname_downlevel.obj
 0002:00004858       ??_C@_1M@IGEOFBG@?$AAe?$AAn?$AA?9?$AAN?$AAZ?$AA?$AA@ 0000000140021858     libucrt:lcidtoname_downlevel.obj
 0002:00004868       ??_C@_1M@KDBONEHP@?$AAe?$AAs?$AA?9?$AAC?$AAR?$AA?$AA@ 0000000140021868     libucrt:lcidtoname_downlevel.obj
 0002:00004878       ??_C@_1M@FHMDOHNN@?$AAf?$AAr?$AA?9?$AAL?$AAU?$AA?$AA@ 0000000140021878     libucrt:lcidtoname_downlevel.obj
 0002:00004888       ??_C@_1BG@NFKKMAFG@?$AAb?$AAs?$AA?9?$AAB?$AAA?$AA?9?$AAL?$AAa?$AAt?$AAn?$AA?$AA@ 0000000140021888     libucrt:lcidtoname_downlevel.obj
 0002:000048a0       ??_C@_1O@IMNBEMCI@?$AAs?$AAm?$AAj?$AA?9?$AAS?$AAE?$AA?$AA@ 00000001400218a0     libucrt:lcidtoname_downlevel.obj
 0002:000048b0       ??_C@_1M@DHHMBNDP@?$AAa?$AAr?$AA?9?$AAM?$AAA?$AA?$AA@ 00000001400218b0     libucrt:lcidtoname_downlevel.obj
 0002:000048c0       ??_C@_1M@BNBLJCGH@?$AAe?$AAn?$AA?9?$AAI?$AAE?$AA?$AA@ 00000001400218c0     libucrt:lcidtoname_downlevel.obj
 0002:000048d0       ??_C@_1M@GEPAFMDL@?$AAe?$AAs?$AA?9?$AAP?$AAA?$AA?$AA@ 00000001400218d0     libucrt:lcidtoname_downlevel.obj
 0002:000048e0       ??_C@_1M@OJONDMDL@?$AAf?$AAr?$AA?9?$AAM?$AAC?$AA?$AA@ 00000001400218e0     libucrt:lcidtoname_downlevel.obj
 0002:000048f0       ??_C@_1BG@OBCNFJB@?$AAs?$AAr?$AA?9?$AAB?$AAA?$AA?9?$AAL?$AAa?$AAt?$AAn?$AA?$AA@ 00000001400218f0     libucrt:lcidtoname_downlevel.obj
 0002:00004908       ??_C@_1O@KEMEEGPO@?$AAs?$AAm?$AAa?$AA?9?$AAN?$AAO?$AA?$AA@ 0000000140021908     libucrt:lcidtoname_downlevel.obj
 0002:00004918       ??_C@_1M@ELMGFODK@?$AAa?$AAr?$AA?9?$AAT?$AAN?$AA?$AA@ 0000000140021918     libucrt:lcidtoname_downlevel.obj
 0002:00004928       ??_C@_1M@BHDLHFAF@?$AAe?$AAn?$AA?9?$AAZ?$AAA?$AA?$AA@ 0000000140021928     libucrt:lcidtoname_downlevel.obj
 0002:00004938       ??_C@_1M@BMGIGLIF@?$AAe?$AAs?$AA?9?$AAD?$AAO?$AA?$AA@ 0000000140021938     libucrt:lcidtoname_downlevel.obj
 0002:00004948       ??_C@_1BG@CMBHIPBE@?$AAs?$AAr?$AA?9?$AAB?$AAA?$AA?9?$AAC?$AAy?$AAr?$AAl?$AA?$AA@ 0000000140021948     libucrt:lcidtoname_downlevel.obj
 0002:00004960       ??_C@_1O@HEDBLHNP@?$AAs?$AAm?$AAa?$AA?9?$AAS?$AAE?$AA?$AA@ 0000000140021960     libucrt:lcidtoname_downlevel.obj
 0002:00004970       ??_C@_1M@DAGCADIM@?$AAa?$AAr?$AA?9?$AAO?$AAM?$AA?$AA@ 0000000140021970     libucrt:lcidtoname_downlevel.obj
 0002:00004980       ??_C@_1M@FODLMICG@?$AAe?$AAn?$AA?9?$AAJ?$AAM?$AA?$AA@ 0000000140021980     libucrt:lcidtoname_downlevel.obj
 0002:00004990       ??_C@_1M@DNMLCIHB@?$AAe?$AAs?$AA?9?$AAV?$AAE?$AA?$AA@ 0000000140021990     libucrt:lcidtoname_downlevel.obj
 0002:000049a0       ??_C@_1O@EOKHMKJK@?$AAs?$AAm?$AAs?$AA?9?$AAF?$AAI?$AA?$AA@ 00000001400219a0     libucrt:lcidtoname_downlevel.obj
 0002:000049b0       ??_C@_1M@CAFJMKOF@?$AAa?$AAr?$AA?9?$AAY?$AAE?$AA?$AA@ 00000001400219b0     libucrt:lcidtoname_downlevel.obj
 0002:000049c0       ??_C@_1M@CBFHIJLI@?$AAe?$AAn?$AA?9?$AAC?$AAB?$AA?$AA@ 00000001400219c0     libucrt:lcidtoname_downlevel.obj
 0002:000049d0       ??_C@_1M@BGNFLDN@?$AAe?$AAs?$AA?9?$AAC?$AAO?$AA?$AA@ 00000001400219d0     libucrt:lcidtoname_downlevel.obj
 0002:000049e0       ??_C@_1O@JMPHMAMC@?$AAs?$AAm?$AAn?$AA?9?$AAF?$AAI?$AA?$AA@ 00000001400219e0     libucrt:lcidtoname_downlevel.obj
 0002:000049f0       ??_C@_1M@JLANABKE@?$AAa?$AAr?$AA?9?$AAS?$AAY?$AA?$AA@ 00000001400219f0     libucrt:lcidtoname_downlevel.obj
 0002:00004a00       ??_C@_1M@HPKGCFGN@?$AAe?$AAn?$AA?9?$AAB?$AAZ?$AA?$AA@ 0000000140021a00     libucrt:lcidtoname_downlevel.obj
 0002:00004a10       ??_C@_1M@OLJCMLGM@?$AAe?$AAs?$AA?9?$AAP?$AAE?$AA?$AA@ 0000000140021a10     libucrt:lcidtoname_downlevel.obj
 0002:00004a20       ??_C@_1M@MKKGFKLE@?$AAa?$AAr?$AA?9?$AAJ?$AAO?$AA?$AA@ 0000000140021a20     libucrt:lcidtoname_downlevel.obj
 0002:00004a30       ??_C@_1M@EKPGLDNI@?$AAe?$AAn?$AA?9?$AAT?$AAT?$AA?$AA@ 0000000140021a30     libucrt:lcidtoname_downlevel.obj
 0002:00004a40       ??_C@_1M@OONGHFHE@?$AAe?$AAs?$AA?9?$AAA?$AAR?$AA?$AA@ 0000000140021a40     libucrt:lcidtoname_downlevel.obj
 0002:00004a50       ??_C@_1M@OOJFGBHE@?$AAa?$AAr?$AA?9?$AAL?$AAB?$AA?$AA@ 0000000140021a50     libucrt:lcidtoname_downlevel.obj
 0002:00004a60       ??_C@_1M@GCEJHNEG@?$AAe?$AAn?$AA?9?$AAZ?$AAW?$AA?$AA@ 0000000140021a60     libucrt:lcidtoname_downlevel.obj
 0002:00004a70       ??_C@_1M@JNOCAHJI@?$AAe?$AAs?$AA?9?$AAE?$AAC?$AA?$AA@ 0000000140021a70     libucrt:lcidtoname_downlevel.obj
 0002:00004a80       ??_C@_1M@JEFHPGGB@?$AAa?$AAr?$AA?9?$AAK?$AAW?$AA?$AA@ 0000000140021a80     libucrt:lcidtoname_downlevel.obj
 0002:00004a90       ??_C@_1M@MLKIBJOJ@?$AAe?$AAn?$AA?9?$AAP?$AAH?$AA?$AA@ 0000000140021a90     libucrt:lcidtoname_downlevel.obj
 0002:00004aa0       ??_C@_1M@BDNIPEND@?$AAe?$AAs?$AA?9?$AAC?$AAL?$AA?$AA@ 0000000140021aa0     libucrt:lcidtoname_downlevel.obj
 0002:00004ab0       ??_C@_1M@MPNMEKBD@?$AAa?$AAr?$AA?9?$AAA?$AAE?$AA?$AA@ 0000000140021ab0     libucrt:lcidtoname_downlevel.obj
 0002:00004ac0       ??_C@_1M@KBJALCPI@?$AAe?$AAs?$AA?9?$AAU?$AAY?$AA?$AA@ 0000000140021ac0     libucrt:lcidtoname_downlevel.obj
 0002:00004ad0       ??_C@_1M@LLCCOAGA@?$AAa?$AAr?$AA?9?$AAB?$AAH?$AA?$AA@ 0000000140021ad0     libucrt:lcidtoname_downlevel.obj
 0002:00004ae0       ??_C@_1M@PBFNCDEL@?$AAe?$AAs?$AA?9?$AAP?$AAY?$AA?$AA@ 0000000140021ae0     libucrt:lcidtoname_downlevel.obj
 0002:00004af0       ??_C@_1M@EDGINPNP@?$AAa?$AAr?$AA?9?$AAQ?$AAA?$AA?$AA@ 0000000140021af0     libucrt:lcidtoname_downlevel.obj
 0002:00004b00       ??_C@_1M@MKDBIIJI@?$AAe?$AAs?$AA?9?$AAB?$AAO?$AA?$AA@ 0000000140021b00     libucrt:lcidtoname_downlevel.obj
 0002:00004b10       ??_C@_1M@CPKKEBLD@?$AAe?$AAs?$AA?9?$AAS?$AAV?$AA?$AA@ 0000000140021b10     libucrt:lcidtoname_downlevel.obj
 0002:00004b20       ??_C@_1M@NDBGMMJL@?$AAe?$AAs?$AA?9?$AAH?$AAN?$AA?$AA@ 0000000140021b20     libucrt:lcidtoname_downlevel.obj
 0002:00004b30       ??_C@_1M@JIJIBHDP@?$AAe?$AAs?$AA?9?$AAN?$AAI?$AA?$AA@ 0000000140021b30     libucrt:lcidtoname_downlevel.obj
 0002:00004b40       ??_C@_1M@CGFMKEEK@?$AAe?$AAs?$AA?9?$AAP?$AAR?$AA?$AA@ 0000000140021b40     libucrt:lcidtoname_downlevel.obj
 0002:00004b50       ??_C@_1O@ICJHKIIK@?$AAz?$AAh?$AA?9?$AAC?$AAH?$AAT?$AA?$AA@ 0000000140021b50     libucrt:lcidtoname_downlevel.obj
 0002:00004b60       ??_C@_15CLNEJCE@?$AAs?$AAr?$AA?$AA@ 0000000140021b60     libucrt:lcidtoname_downlevel.obj
 0002:000059b0       ??_C@_1M@KAHEKEIG@?$AAa?$AAf?$AA?9?$AAz?$AAa?$AA?$AA@ 00000001400229b0     libucrt:lcidtoname_downlevel.obj
 0002:000059c0       ??_C@_1M@GIECOABL@?$AAa?$AAr?$AA?9?$AAa?$AAe?$AA?$AA@ 00000001400229c0     libucrt:lcidtoname_downlevel.obj
 0002:000059d0       ??_C@_1M@BMLMEKGI@?$AAa?$AAr?$AA?9?$AAb?$AAh?$AA?$AA@ 00000001400229d0     libucrt:lcidtoname_downlevel.obj
 0002:000059e0       ??_C@_1M@DAPFDGGB@?$AAa?$AAr?$AA?9?$AAd?$AAz?$AA?$AA@ 00000001400229e0     libucrt:lcidtoname_downlevel.obj
 0002:000059f0       ??_C@_1M@FJNKGKIG@?$AAa?$AAr?$AA?9?$AAe?$AAg?$AA?$AA@ 00000001400229f0     libucrt:lcidtoname_downlevel.obj
 0002:00005a00       ??_C@_1M@FLGKKCLO@?$AAa?$AAr?$AA?9?$AAi?$AAq?$AA?$AA@ 0000000140022a00     libucrt:lcidtoname_downlevel.obj
 0002:00005a10       ??_C@_1M@GNDIPALM@?$AAa?$AAr?$AA?9?$AAj?$AAo?$AA?$AA@ 0000000140022a10     libucrt:lcidtoname_downlevel.obj
 0002:00005a20       ??_C@_1M@DDMJFMGJ@?$AAa?$AAr?$AA?9?$AAk?$AAw?$AA?$AA@ 0000000140022a20     libucrt:lcidtoname_downlevel.obj
 0002:00005a30       ??_C@_1M@EJALMLHM@?$AAa?$AAr?$AA?9?$AAl?$AAb?$AA?$AA@ 0000000140022a30     libucrt:lcidtoname_downlevel.obj
 0002:00005a40       ??_C@_1M@MOBDBLOC@?$AAa?$AAr?$AA?9?$AAl?$AAy?$AA?$AA@ 0000000140022a40     libucrt:lcidtoname_downlevel.obj
 0002:00005a50       ??_C@_1M@JAOCLHDH@?$AAa?$AAr?$AA?9?$AAm?$AAa?$AA?$AA@ 0000000140022a50     libucrt:lcidtoname_downlevel.obj
 0002:00005a60       ??_C@_1M@JHPMKJIE@?$AAa?$AAr?$AA?9?$AAo?$AAm?$AA?$AA@ 0000000140022a60     libucrt:lcidtoname_downlevel.obj
 0002:00005a70       ??_C@_1M@OEPGHFNH@?$AAa?$AAr?$AA?9?$AAq?$AAa?$AA?$AA@ 0000000140022a70     libucrt:lcidtoname_downlevel.obj
 0002:00005a80       ??_C@_1M@KJDONENM@?$AAa?$AAr?$AA?9?$AAs?$AAa?$AA?$AA@ 0000000140022a80     libucrt:lcidtoname_downlevel.obj
 0002:00005a90       ??_C@_1M@DMJDKLKM@?$AAa?$AAr?$AA?9?$AAs?$AAy?$AA?$AA@ 0000000140022a90     libucrt:lcidtoname_downlevel.obj
 0002:00005aa0       ??_C@_1M@OMFIPEDC@?$AAa?$AAr?$AA?9?$AAt?$AAn?$AA?$AA@ 0000000140022aa0     libucrt:lcidtoname_downlevel.obj
 0002:00005ab0       ??_C@_1M@IHMHGAON@?$AAa?$AAr?$AA?9?$AAy?$AAe?$AA?$AA@ 0000000140022ab0     libucrt:lcidtoname_downlevel.obj
 0002:00005ac0       ??_C@_1BG@KDCPGJGB@?$AAa?$AAz?$AA?9?$AAa?$AAz?$AA?9?$AAc?$AAy?$AAr?$AAl?$AA?$AA@ 0000000140022ac0     libucrt:lcidtoname_downlevel.obj
 0002:00005ad8       ??_C@_1BG@IBCKDDOE@?$AAa?$AAz?$AA?9?$AAa?$AAz?$AA?9?$AAl?$AAa?$AAt?$AAn?$AA?$AA@ 0000000140022ad8     libucrt:lcidtoname_downlevel.obj
 0002:00005af0       ??_C@_1M@EGPFDCPD@?$AAb?$AAe?$AA?9?$AAb?$AAy?$AA?$AA@ 0000000140022af0     libucrt:lcidtoname_downlevel.obj
 0002:00005b00       ??_C@_1M@PCMGMCGC@?$AAb?$AAg?$AA?9?$AAb?$AAg?$AA?$AA@ 0000000140022b00     libucrt:lcidtoname_downlevel.obj
 0002:00005b10       ??_C@_1M@BJBMFGOB@?$AAb?$AAn?$AA?9?$AAi?$AAn?$AA?$AA@ 0000000140022b10     libucrt:lcidtoname_downlevel.obj
 0002:00005b20       ??_C@_1BG@EAKMMACD@?$AAb?$AAs?$AA?9?$AAb?$AAa?$AA?9?$AAl?$AAa?$AAt?$AAn?$AA?$AA@ 0000000140022b20     libucrt:lcidtoname_downlevel.obj
 0002:00005b38       ??_C@_1M@KGADAODK@?$AAc?$AAa?$AA?9?$AAe?$AAs?$AA?$AA@ 0000000140022b38     libucrt:lcidtoname_downlevel.obj
 0002:00005b48       ??_C@_1M@COAJPDHI@?$AAc?$AAs?$AA?9?$AAc?$AAz?$AA?$AA@ 0000000140022b48     libucrt:lcidtoname_downlevel.obj
 0002:00005b58       ??_C@_1M@DHBHFONH@?$AAc?$AAy?$AA?9?$AAg?$AAb?$AA?$AA@ 0000000140022b58     libucrt:lcidtoname_downlevel.obj
 0002:00005b68       ??_C@_1M@IMGKELGA@?$AAd?$AAa?$AA?9?$AAd?$AAk?$AA?$AA@ 0000000140022b68     libucrt:lcidtoname_downlevel.obj
 0002:00005b78       ??_C@_1M@NNDGDNGA@?$AAd?$AAe?$AA?9?$AAa?$AAt?$AA?$AA@ 0000000140022b78     libucrt:lcidtoname_downlevel.obj
 0002:00005b88       ??_C@_1M@IKDBHEEM@?$AAd?$AAe?$AA?9?$AAc?$AAh?$AA?$AA@ 0000000140022b88     libucrt:lcidtoname_downlevel.obj
 0002:00005b98       ??_C@_1M@GFFOJMCJ@?$AAd?$AAe?$AA?9?$AAd?$AAe?$AA?$AA@ 0000000140022b98     libucrt:lcidtoname_downlevel.obj
 0002:00005ba8       ??_C@_1M@MDNLKBPM@?$AAd?$AAe?$AA?9?$AAl?$AAi?$AA?$AA@ 0000000140022ba8     libucrt:lcidtoname_downlevel.obj
 0002:00005bb8       ??_C@_1M@NJBEEJNL@?$AAd?$AAe?$AA?9?$AAl?$AAu?$AA?$AA@ 0000000140022bb8     libucrt:lcidtoname_downlevel.obj
 0002:00005bc8       ??_C@_1O@GNNELBAP@?$AAd?$AAi?$AAv?$AA?9?$AAm?$AAv?$AA?$AA@ 0000000140022bc8     libucrt:lcidtoname_downlevel.obj
 0002:00005bd8       ??_C@_1M@EJLEOGAE@?$AAe?$AAl?$AA?9?$AAg?$AAr?$AA?$AA@ 0000000140022bd8     libucrt:lcidtoname_downlevel.obj
 0002:00005be8       ??_C@_1M@GMPONJN@?$AAe?$AAn?$AA?9?$AAa?$AAu?$AA?$AA@ 0000000140022be8     libucrt:lcidtoname_downlevel.obj
 0002:00005bf8       ??_C@_1M@NIDIIPGF@?$AAe?$AAn?$AA?9?$AAb?$AAz?$AA?$AA@ 0000000140022bf8     libucrt:lcidtoname_downlevel.obj
 0002:00005c08       ??_C@_1M@JEHMIMFO@?$AAe?$AAn?$AA?9?$AAc?$AAa?$AA?$AA@ 0000000140022c08     libucrt:lcidtoname_downlevel.obj
 0002:00005c18       ??_C@_1M@IGMJCDLA@?$AAe?$AAn?$AA?9?$AAc?$AAb?$AA?$AA@ 0000000140022c18     libucrt:lcidtoname_downlevel.obj
 0002:00005c28       ??_C@_1M@BNFIGBKG@?$AAe?$AAn?$AA?9?$AAg?$AAb?$AA?$AA@ 0000000140022c28     libucrt:lcidtoname_downlevel.obj
 0002:00005c38       ??_C@_1M@LKIFDIGP@?$AAe?$AAn?$AA?9?$AAi?$AAe?$AA?$AA@ 0000000140022c38     libucrt:lcidtoname_downlevel.obj
 0002:00005c48       ??_C@_1M@PJKFGCCO@?$AAe?$AAn?$AA?9?$AAj?$AAm?$AA?$AA@ 0000000140022c48     libucrt:lcidtoname_downlevel.obj
 0002:00005c58       ??_C@_1M@KPPKEPBO@?$AAe?$AAn?$AA?9?$AAn?$AAz?$AA?$AA@ 0000000140022c58     libucrt:lcidtoname_downlevel.obj
 0002:00005c68       ??_C@_1M@GMDGLDOB@?$AAe?$AAn?$AA?9?$AAp?$AAh?$AA?$AA@ 0000000140022c68     libucrt:lcidtoname_downlevel.obj
 0002:00005c78       ??_C@_1M@ONGIBJNA@?$AAe?$AAn?$AA?9?$AAt?$AAt?$AA?$AA@ 0000000140022c78     libucrt:lcidtoname_downlevel.obj
 0002:00005c88       ??_C@_1M@LLODPCMM@?$AAe?$AAn?$AA?9?$AAu?$AAs?$AA?$AA@ 0000000140022c88     libucrt:lcidtoname_downlevel.obj
 0002:00005c98       ??_C@_1M@LAKFNPAN@?$AAe?$AAn?$AA?9?$AAz?$AAa?$AA?$AA@ 0000000140022c98     libucrt:lcidtoname_downlevel.obj
 0002:00005ca8       ??_C@_1M@MFNHNHEO@?$AAe?$AAn?$AA?9?$AAz?$AAw?$AA?$AA@ 0000000140022ca8     libucrt:lcidtoname_downlevel.obj
 0002:00005cb8       ??_C@_1M@EJEINPHM@?$AAe?$AAs?$AA?9?$AAa?$AAr?$AA?$AA@ 0000000140022cb8     libucrt:lcidtoname_downlevel.obj
 0002:00005cc8       ??_C@_1M@GNKPCCJA@?$AAe?$AAs?$AA?9?$AAb?$AAo?$AA?$AA@ 0000000140022cc8     libucrt:lcidtoname_downlevel.obj
 0002:00005cd8       ??_C@_1M@LEEGFONL@?$AAe?$AAs?$AA?9?$AAc?$AAl?$AA?$AA@ 0000000140022cd8     libucrt:lcidtoname_downlevel.obj
 0002:00005ce8       ??_C@_1M@KGPDPBDF@?$AAe?$AAs?$AA?9?$AAc?$AAo?$AA?$AA@ 0000000140022ce8     libucrt:lcidtoname_downlevel.obj
 0002:00005cf8       ??_C@_1M@EIAHOHH@?$AAe?$AAs?$AA?9?$AAc?$AAr?$AA?$AA@ 0000000140022cf8     libucrt:lcidtoname_downlevel.obj
 0002:00005d08       ??_C@_1M@LLPGMBIN@?$AAe?$AAs?$AA?9?$AAd?$AAo?$AA?$AA@ 0000000140022d08     libucrt:lcidtoname_downlevel.obj
 0002:00005d18       ??_C@_1M@DKHMKNJA@?$AAe?$AAs?$AA?9?$AAe?$AAc?$AA?$AA@ 0000000140022d18     libucrt:lcidtoname_downlevel.obj
 0002:00005d28       ??_C@_1M@GKGFPKAP@?$AAe?$AAs?$AA?9?$AAe?$AAs?$AA?$AA@ 0000000140022d28     libucrt:lcidtoname_downlevel.obj
 0002:00005d38       ??_C@_1M@LKHKGDLN@?$AAe?$AAs?$AA?9?$AAg?$AAt?$AA?$AA@ 0000000140022d38     libucrt:lcidtoname_downlevel.obj
 0002:00005d48       ??_C@_1M@HEIIGGJD@?$AAe?$AAs?$AA?9?$AAh?$AAn?$AA?$AA@ 0000000140022d48     libucrt:lcidtoname_downlevel.obj
 0002:00005d58       ??_C@_1M@FBDHPPGD@?$AAe?$AAs?$AA?9?$AAm?$AAx?$AA?$AA@ 0000000140022d58     libucrt:lcidtoname_downlevel.obj
 0002:00005d68       ??_C@_1M@DPAGLNDH@?$AAe?$AAs?$AA?9?$AAn?$AAi?$AA?$AA@ 0000000140022d68     libucrt:lcidtoname_downlevel.obj
 0002:00005d78       ??_C@_1M@MDGOPGDD@?$AAe?$AAs?$AA?9?$AAp?$AAa?$AA?$AA@ 0000000140022d78     libucrt:lcidtoname_downlevel.obj
 0002:00005d88       ??_C@_1M@EMAMGBGE@?$AAe?$AAs?$AA?9?$AAp?$AAe?$AA?$AA@ 0000000140022d88     libucrt:lcidtoname_downlevel.obj
 0002:00005d98       ??_C@_1M@IBMCAOEC@?$AAe?$AAs?$AA?9?$AAp?$AAr?$AA?$AA@ 0000000140022d98     libucrt:lcidtoname_downlevel.obj
 0002:00005da8       ??_C@_1M@FGMDIJED@?$AAe?$AAs?$AA?9?$AAp?$AAy?$AA?$AA@ 0000000140022da8     libucrt:lcidtoname_downlevel.obj
 0002:00005db8       ??_C@_1M@IIDEOLLL@?$AAe?$AAs?$AA?9?$AAs?$AAv?$AA?$AA@ 0000000140022db8     libucrt:lcidtoname_downlevel.obj
 0002:00005dc8       ??_C@_1M@GAOBIPA@?$AAe?$AAs?$AA?9?$AAu?$AAy?$AA?$AA@ 0000000140022dc8     libucrt:lcidtoname_downlevel.obj
 0002:00005dd8       ??_C@_1M@JKFFICHJ@?$AAe?$AAs?$AA?9?$AAv?$AAe?$AA?$AA@ 0000000140022dd8     libucrt:lcidtoname_downlevel.obj
 0002:00005de8       ??_C@_1M@PNMLOJDF@?$AAe?$AAt?$AA?9?$AAe?$AAe?$AA?$AA@ 0000000140022de8     libucrt:lcidtoname_downlevel.obj
 0002:00005df8       ??_C@_1M@GHHLIKEI@?$AAe?$AAu?$AA?9?$AAe?$AAs?$AA?$AA@ 0000000140022df8     libucrt:lcidtoname_downlevel.obj
 0002:00005e08       ??_C@_1M@PBNONODE@?$AAf?$AAa?$AA?9?$AAi?$AAr?$AA?$AA@ 0000000140022e08     libucrt:lcidtoname_downlevel.obj
 0002:00005e18       ??_C@_1M@JEEHPMIL@?$AAf?$AAi?$AA?9?$AAf?$AAi?$AA?$AA@ 0000000140022e18     libucrt:lcidtoname_downlevel.obj
 0002:00005e28       ??_C@_1M@LMDCNDBA@?$AAf?$AAo?$AA?9?$AAf?$AAo?$AA?$AA@ 0000000140022e28     libucrt:lcidtoname_downlevel.obj
 0002:00005e38       ??_C@_1M@JKEOHLDK@?$AAf?$AAr?$AA?9?$AAb?$AAe?$AA?$AA@ 0000000140022e38     libucrt:lcidtoname_downlevel.obj
 0002:00005e48       ??_C@_1M@NOHADPMI@?$AAf?$AAr?$AA?9?$AAc?$AAa?$AA?$AA@ 0000000140022e48     libucrt:lcidtoname_downlevel.obj
 0002:00005e58       ??_C@_1M@KDHIHAEC@?$AAf?$AAr?$AA?9?$AAc?$AAh?$AA?$AA@ 0000000140022e58     libucrt:lcidtoname_downlevel.obj
 0002:00005e68       ??_C@_1M@MMBBFGAK@?$AAf?$AAr?$AA?9?$AAf?$AAr?$AA?$AA@ 0000000140022e68     libucrt:lcidtoname_downlevel.obj
 0002:00005e78       ??_C@_1M@PAFNENNF@?$AAf?$AAr?$AA?9?$AAl?$AAu?$AA?$AA@ 0000000140022e78     libucrt:lcidtoname_downlevel.obj
 0002:00005e88       ??_C@_1M@EOHDJGDD@?$AAf?$AAr?$AA?9?$AAm?$AAc?$AA?$AA@ 0000000140022e88     libucrt:lcidtoname_downlevel.obj
 0002:00005e98       ??_C@_1M@FAPLLOPF@?$AAg?$AAl?$AA?9?$AAe?$AAs?$AA?$AA@ 0000000140022e98     libucrt:lcidtoname_downlevel.obj
 0002:00005ea8       ??_C@_1M@FOPBFLOO@?$AAg?$AAu?$AA?9?$AAi?$AAn?$AA?$AA@ 0000000140022ea8     libucrt:lcidtoname_downlevel.obj
 0002:00005eb8       ??_C@_1M@KBMCINPM@?$AAh?$AAe?$AA?9?$AAi?$AAl?$AA?$AA@ 0000000140022eb8     libucrt:lcidtoname_downlevel.obj
 0002:00005ec8       ??_C@_1M@BBPHKFPJ@?$AAh?$AAi?$AA?9?$AAi?$AAn?$AA?$AA@ 0000000140022ec8     libucrt:lcidtoname_downlevel.obj
 0002:00005ed8       ??_C@_1M@PMBNDPHD@?$AAh?$AAr?$AA?9?$AAb?$AAa?$AA?$AA@ 0000000140022ed8     libucrt:lcidtoname_downlevel.obj
 0002:00005ee8       ??_C@_1M@BPCKOEGE@?$AAh?$AAr?$AA?9?$AAh?$AAr?$AA?$AA@ 0000000140022ee8     libucrt:lcidtoname_downlevel.obj
 0002:00005ef8       ??_C@_1M@GACBMHKE@?$AAh?$AAu?$AA?9?$AAh?$AAu?$AA?$AA@ 0000000140022ef8     libucrt:lcidtoname_downlevel.obj
 0002:00005f08       ??_C@_1M@MILPAJJC@?$AAh?$AAy?$AA?9?$AAa?$AAm?$AA?$AA@ 0000000140022f08     libucrt:lcidtoname_downlevel.obj
 0002:00005f18       ??_C@_1M@BABBICEC@?$AAi?$AAd?$AA?9?$AAi?$AAd?$AA?$AA@ 0000000140022f18     libucrt:lcidtoname_downlevel.obj
 0002:00005f28       ??_C@_1M@BIKNHHPF@?$AAi?$AAs?$AA?9?$AAi?$AAs?$AA?$AA@ 0000000140022f28     libucrt:lcidtoname_downlevel.obj
 0002:00005f38       ??_C@_1M@NMPCJPHE@?$AAi?$AAt?$AA?9?$AAc?$AAh?$AA?$AA@ 0000000140022f38     libucrt:lcidtoname_downlevel.obj
 0002:00005f48       ??_C@_1M@GHKGFEDF@?$AAi?$AAt?$AA?9?$AAi?$AAt?$AA?$AA@ 0000000140022f48     libucrt:lcidtoname_downlevel.obj
 0002:00005f58       ??_C@_1M@NIEJCJJA@?$AAj?$AAa?$AA?9?$AAj?$AAp?$AA?$AA@ 0000000140022f58     libucrt:lcidtoname_downlevel.obj
 0002:00005f68       ??_C@_1M@JILFNBIM@?$AAk?$AAa?$AA?9?$AAg?$AAe?$AA?$AA@ 0000000140022f68     libucrt:lcidtoname_downlevel.obj
 0002:00005f78       ??_C@_1M@PACPMGPH@?$AAk?$AAk?$AA?9?$AAk?$AAz?$AA?$AA@ 0000000140022f78     libucrt:lcidtoname_downlevel.obj
 0002:00005f88       ??_C@_1M@IELFGMHA@?$AAk?$AAn?$AA?9?$AAi?$AAn?$AA?$AA@ 0000000140022f88     libucrt:lcidtoname_downlevel.obj
 0002:00005f98       ??_C@_1O@IBBJHCH@?$AAk?$AAo?$AAk?$AA?9?$AAi?$AAn?$AA?$AA@ 0000000140022f98     libucrt:lcidtoname_downlevel.obj
 0002:00005fa8       ??_C@_1M@DMHAEOGC@?$AAk?$AAo?$AA?9?$AAk?$AAr?$AA?$AA@ 0000000140022fa8     libucrt:lcidtoname_downlevel.obj
 0002:00005fb8       ??_C@_1M@HBAHBIGA@?$AAk?$AAy?$AA?9?$AAk?$AAg?$AA?$AA@ 0000000140022fb8     libucrt:lcidtoname_downlevel.obj
 0002:00005fc8       ??_C@_1M@KPMILCJG@?$AAl?$AAt?$AA?9?$AAl?$AAt?$AA?$AA@ 0000000140022fc8     libucrt:lcidtoname_downlevel.obj
 0002:00005fd8       ??_C@_1M@BDEKKCA@?$AAl?$AAv?$AA?9?$AAl?$AAv?$AA?$AA@ 0000000140022fd8     libucrt:lcidtoname_downlevel.obj
 0002:00005fe8       ??_C@_1M@ELCKCCJJ@?$AAm?$AAi?$AA?9?$AAn?$AAz?$AA?$AA@ 0000000140022fe8     libucrt:lcidtoname_downlevel.obj
 0002:00005ff8       ??_C@_1M@CBOOLAPA@?$AAm?$AAk?$AA?9?$AAm?$AAk?$AA?$AA@ 0000000140022ff8     libucrt:lcidtoname_downlevel.obj
 0002:00006008       ??_C@_1M@GPHNBJKN@?$AAm?$AAl?$AA?9?$AAi?$AAn?$AA?$AA@ 0000000140023008     libucrt:lcidtoname_downlevel.obj
 0002:00006018       ??_C@_1M@PABJILIG@?$AAm?$AAn?$AA?9?$AAm?$AAn?$AA?$AA@ 0000000140023018     libucrt:lcidtoname_downlevel.obj
 0002:00006028       ??_C@_1M@FGBKKIPG@?$AAm?$AAr?$AA?9?$AAi?$AAn?$AA?$AA@ 0000000140023028     libucrt:lcidtoname_downlevel.obj
 0002:00006038       ??_C@_1M@NDBPDDAL@?$AAm?$AAs?$AA?9?$AAb?$AAn?$AA?$AA@ 0000000140023038     libucrt:lcidtoname_downlevel.obj
 0002:00006048       ??_C@_1M@OPIHOOPI@?$AAm?$AAs?$AA?9?$AAm?$AAy?$AA?$AA@ 0000000140023048     libucrt:lcidtoname_downlevel.obj
 0002:00006058       ??_C@_1M@PPDBCNFM@?$AAm?$AAt?$AA?9?$AAm?$AAt?$AA?$AA@ 0000000140023058     libucrt:lcidtoname_downlevel.obj
 0002:00006068       ??_C@_1M@KDJDKMDD@?$AAn?$AAb?$AA?9?$AAn?$AAo?$AA?$AA@ 0000000140023068     libucrt:lcidtoname_downlevel.obj
 0002:00006078       ??_C@_1M@KFCFLMJP@?$AAn?$AAl?$AA?9?$AAb?$AAe?$AA?$AA@ 0000000140023078     libucrt:lcidtoname_downlevel.obj
 0002:00006088       ??_C@_1M@KPOPDDGO@?$AAn?$AAl?$AA?9?$AAn?$AAl?$AA?$AA@ 0000000140023088     libucrt:lcidtoname_downlevel.obj
 0002:00006098       ??_C@_1M@LJKPEMLN@?$AAn?$AAn?$AA?9?$AAn?$AAo?$AA?$AA@ 0000000140023098     libucrt:lcidtoname_downlevel.obj
 0002:000060a8       ??_C@_1M@BDGHHBFL@?$AAn?$AAs?$AA?9?$AAz?$AAa?$AA?$AA@ 00000001400230a8     libucrt:lcidtoname_downlevel.obj
 0002:000060b8       ??_C@_1M@IDEHOAP@?$AAp?$AAa?$AA?9?$AAi?$AAn?$AA?$AA@ 00000001400230b8     libucrt:lcidtoname_downlevel.obj
 0002:000060c8       ??_C@_1M@HDBKGOGH@?$AAp?$AAl?$AA?9?$AAp?$AAl?$AA?$AA@ 00000001400230c8     libucrt:lcidtoname_downlevel.obj
 0002:000060d8       ??_C@_1M@LJLLCMEH@?$AAp?$AAt?$AA?9?$AAb?$AAr?$AA?$AA@ 00000001400230d8     libucrt:lcidtoname_downlevel.obj
 0002:000060e8       ??_C@_1M@NCMONAAL@?$AAp?$AAt?$AA?9?$AAp?$AAt?$AA?$AA@ 00000001400230e8     libucrt:lcidtoname_downlevel.obj
 0002:000060f8       ??_C@_1O@EAKMAJDN@?$AAq?$AAu?$AAz?$AA?9?$AAb?$AAo?$AA?$AA@ 00000001400230f8     libucrt:lcidtoname_downlevel.obj
 0002:00006108       ??_C@_1O@BHHPIGDN@?$AAq?$AAu?$AAz?$AA?9?$AAe?$AAc?$AA?$AA@ 0000000140023108     libucrt:lcidtoname_downlevel.obj
 0002:00006118       ??_C@_1O@GBAPEKMJ@?$AAq?$AAu?$AAz?$AA?9?$AAp?$AAe?$AA?$AA@ 0000000140023118     libucrt:lcidtoname_downlevel.obj
 0002:00006128       ??_C@_1M@CLGLEFBO@?$AAr?$AAo?$AA?9?$AAr?$AAo?$AA?$AA@ 0000000140023128     libucrt:lcidtoname_downlevel.obj
 0002:00006138       ??_C@_1M@CEEDODME@?$AAr?$AAu?$AA?9?$AAr?$AAu?$AA?$AA@ 0000000140023138     libucrt:lcidtoname_downlevel.obj
 0002:00006148       ??_C@_1M@HPKKKMPP@?$AAs?$AAa?$AA?9?$AAi?$AAn?$AA?$AA@ 0000000140023148     libucrt:lcidtoname_downlevel.obj
 0002:00006158       ??_C@_1M@BKMAIGOJ@?$AAs?$AAe?$AA?9?$AAf?$AAi?$AA?$AA@ 0000000140023158     libucrt:lcidtoname_downlevel.obj
 0002:00006168       ??_C@_1M@NDPIFLFI@?$AAs?$AAe?$AA?9?$AAn?$AAo?$AA?$AA@ 0000000140023168     libucrt:lcidtoname_downlevel.obj
 0002:00006178       ??_C@_1M@DANKKHJ@?$AAs?$AAe?$AA?9?$AAs?$AAe?$AA?$AA@ 0000000140023178     libucrt:lcidtoname_downlevel.obj
 0002:00006188       ??_C@_1M@PNBLONPJ@?$AAs?$AAk?$AA?9?$AAs?$AAk?$AA?$AA@ 0000000140023188     libucrt:lcidtoname_downlevel.obj
 0002:00006198       ??_C@_1M@LFMODOAL@?$AAs?$AAl?$AA?9?$AAs?$AAi?$AA?$AA@ 0000000140023198     libucrt:lcidtoname_downlevel.obj
 0002:000061a8       ??_C@_1O@DFKOMPG@?$AAs?$AAm?$AAa?$AA?9?$AAn?$AAo?$AA?$AA@ 00000001400231a8     libucrt:lcidtoname_downlevel.obj
 0002:000061b8       ??_C@_1O@NDKPBNNH@?$AAs?$AAm?$AAa?$AA?9?$AAs?$AAe?$AA?$AA@ 00000001400231b8     libucrt:lcidtoname_downlevel.obj
 0002:000061c8       ??_C@_1O@PLLKBHAB@?$AAs?$AAm?$AAj?$AA?9?$AAn?$AAo?$AA?$AA@ 00000001400231c8     libucrt:lcidtoname_downlevel.obj
 0002:000061d8       ??_C@_1O@CLEPOGCA@?$AAs?$AAm?$AAj?$AA?9?$AAs?$AAe?$AA?$AA@ 00000001400231d8     libucrt:lcidtoname_downlevel.obj
 0002:000061e8       ??_C@_1O@DLGJGKMK@?$AAs?$AAm?$AAn?$AA?9?$AAf?$AAi?$AA?$AA@ 00000001400231e8     libucrt:lcidtoname_downlevel.obj
 0002:000061f8       ??_C@_1O@OJDJGAJC@?$AAs?$AAm?$AAs?$AA?9?$AAf?$AAi?$AA?$AA@ 00000001400231f8     libucrt:lcidtoname_downlevel.obj
 0002:00006208       ??_C@_1M@BOFOGHPB@?$AAs?$AAq?$AA?9?$AAa?$AAl?$AA?$AA@ 0000000140023208     libucrt:lcidtoname_downlevel.obj
 0002:00006218       ??_C@_1BG@LJBBIPGB@?$AAs?$AAr?$AA?9?$AAb?$AAa?$AA?9?$AAc?$AAy?$AAr?$AAl?$AA?$AA@ 0000000140023218     libucrt:lcidtoname_downlevel.obj
 0002:00006230       ??_C@_1BG@JLBENFOE@?$AAs?$AAr?$AA?9?$AAb?$AAa?$AA?9?$AAl?$AAa?$AAt?$AAn?$AA?$AA@ 0000000140023230     libucrt:lcidtoname_downlevel.obj
 0002:00006248       ??_C@_1BG@KODPNHE@?$AAs?$AAr?$AA?9?$AAs?$AAp?$AA?9?$AAc?$AAy?$AAr?$AAl?$AA?$AA@ 0000000140023248     libucrt:lcidtoname_downlevel.obj
 0002:00006260       ??_C@_1BG@CIOGKHPB@?$AAs?$AAr?$AA?9?$AAs?$AAp?$AA?9?$AAl?$AAa?$AAt?$AAn?$AA?$AA@ 0000000140023260     libucrt:lcidtoname_downlevel.obj
 0002:00006278       ??_C@_1M@NGFJLMAC@?$AAs?$AAv?$AA?9?$AAf?$AAi?$AA?$AA@ 0000000140023278     libucrt:lcidtoname_downlevel.obj
 0002:00006288       ??_C@_1M@MPJEJAJC@?$AAs?$AAv?$AA?9?$AAs?$AAe?$AA?$AA@ 0000000140023288     libucrt:lcidtoname_downlevel.obj
 0002:00006298       ??_C@_1M@MPNDHLFK@?$AAs?$AAw?$AA?9?$AAk?$AAe?$AA?$AA@ 0000000140023298     libucrt:lcidtoname_downlevel.obj
 0002:000062a8       ??_C@_1O@KOHBJJI@?$AAs?$AAy?$AAr?$AA?9?$AAs?$AAy?$AA?$AA@ 00000001400232a8     libucrt:lcidtoname_downlevel.obj
 0002:000062b8       ??_C@_1M@LDCEFHA@?$AAt?$AAa?$AA?9?$AAi?$AAn?$AA?$AA@ 00000001400232b8     libucrt:lcidtoname_downlevel.obj
 0002:000062c8       ??_C@_1M@CNJOFAK@?$AAt?$AAe?$AA?9?$AAi?$AAn?$AA?$AA@ 00000001400232c8     libucrt:lcidtoname_downlevel.obj
 0002:000062d8       ??_C@_1M@GNAECACD@?$AAt?$AAh?$AA?9?$AAt?$AAh?$AA?$AA@ 00000001400232d8     libucrt:lcidtoname_downlevel.obj
 0002:000062e8       ??_C@_1M@CHBIHOJO@?$AAt?$AAn?$AA?9?$AAz?$AAa?$AA?$AA@ 00000001400232e8     libucrt:lcidtoname_downlevel.obj
 0002:000062f8       ??_C@_1M@GCCMIGPJ@?$AAt?$AAr?$AA?9?$AAt?$AAr?$AA?$AA@ 00000001400232f8     libucrt:lcidtoname_downlevel.obj
 0002:00006308       ??_C@_1M@CELMCNBK@?$AAt?$AAt?$AA?9?$AAr?$AAu?$AA?$AA@ 0000000140023308     libucrt:lcidtoname_downlevel.obj
 0002:00006318       ??_C@_1M@KLMCELGA@?$AAu?$AAk?$AA?9?$AAu?$AAa?$AA?$AA@ 0000000140023318     libucrt:lcidtoname_downlevel.obj
 0002:00006328       ??_C@_1M@EPAJJAJF@?$AAu?$AAr?$AA?9?$AAp?$AAk?$AA?$AA@ 0000000140023328     libucrt:lcidtoname_downlevel.obj
 0002:00006338       ??_C@_1BG@GEGPMCDJ@?$AAu?$AAz?$AA?9?$AAu?$AAz?$AA?9?$AAc?$AAy?$AAr?$AAl?$AA?$AA@ 0000000140023338     libucrt:lcidtoname_downlevel.obj
 0002:00006350       ??_C@_1BG@EGGKJILM@?$AAu?$AAz?$AA?9?$AAu?$AAz?$AA?9?$AAl?$AAa?$AAt?$AAn?$AA?$AA@ 0000000140023350     libucrt:lcidtoname_downlevel.obj
 0002:00006368       ??_C@_1M@GFOCLFF@?$AAv?$AAi?$AA?9?$AAv?$AAn?$AA?$AA@ 0000000140023368     libucrt:lcidtoname_downlevel.obj
 0002:00006378       ??_C@_1M@CPAMEDFI@?$AAx?$AAh?$AA?9?$AAz?$AAa?$AA?$AA@ 0000000140023378     libucrt:lcidtoname_downlevel.obj
 0002:00006388       ??_C@_1O@EBKIFIGN@?$AAz?$AAh?$AA?9?$AAc?$AAh?$AAs?$AA?$AA@ 0000000140023388     libucrt:lcidtoname_downlevel.obj
 0002:00006398       ??_C@_1O@NMHPGANE@?$AAz?$AAh?$AA?9?$AAc?$AAh?$AAt?$AA?$AA@ 0000000140023398     libucrt:lcidtoname_downlevel.obj
 0002:000063a8       ??_C@_1M@LPINJOMC@?$AAz?$AAh?$AA?9?$AAc?$AAn?$AA?$AA@ 00000001400233a8     libucrt:lcidtoname_downlevel.obj
 0002:000063b8       ??_C@_1M@OCJEJODD@?$AAz?$AAh?$AA?9?$AAh?$AAk?$AA?$AA@ 00000001400233b8     libucrt:lcidtoname_downlevel.obj
 0002:000063c8       ??_C@_1M@DNDLJINH@?$AAz?$AAh?$AA?9?$AAm?$AAo?$AA?$AA@ 00000001400233c8     libucrt:lcidtoname_downlevel.obj
 0002:000063d8       ??_C@_1M@MBFDNDND@?$AAz?$AAh?$AA?9?$AAs?$AAg?$AA?$AA@ 00000001400233d8     libucrt:lcidtoname_downlevel.obj
 0002:000063e8       ??_C@_1M@IMEPLEPE@?$AAz?$AAh?$AA?9?$AAt?$AAw?$AA?$AA@ 00000001400233e8     libucrt:lcidtoname_downlevel.obj
 0002:000063f8       ??_C@_1M@BBGHNHJP@?$AAz?$AAu?$AA?9?$AAz?$AAa?$AA?$AA@ 00000001400233f8     libucrt:lcidtoname_downlevel.obj
 0002:00006404       ??_C@_01GBGANLPD@0?$AA@    0000000140023404     libucrt:cfout.obj
 0002:00006408       ??_C@_05DNEBIAHO@1?$CDINF?$AA@ 0000000140023408     libucrt:cfout.obj
 0002:00006410       ??_C@_06IMKFLFPG@1?$CDQNAN?$AA@ 0000000140023410     libucrt:cfout.obj
 0002:00006418       ??_C@_06PGGFOGJG@1?$CDSNAN?$AA@ 0000000140023418     libucrt:cfout.obj
 0002:00006420       ??_C@_05PHHOCPM@1?$CDIND?$AA@ 0000000140023420     libucrt:cfout.obj
 0002:00006690       ??_C@_1BA@BALFACEM@?$AAC?$AAO?$AAN?$AAO?$AAU?$AAT?$AA$?$AA?$AA@ 0000000140023690     libucrt:initcon.obj
 0002:000066a0       __log10_256_lead           00000001400236a0     libucrt:log10_256_lead_tail_table.obj
 0002:00006eb0       __log10_256_tail           0000000140023eb0     libucrt:log10_256_lead_tail_table.obj
 0002:000076c0       __log_F_inv_qword          00000001400246c0     libucrt:log_f_inv_qword_table.obj
 0002:00007ed0       ??_C@_03MGHMBJCF@log?$AA@  0000000140024ed0     libucrt:log_special.obj
 0002:00007ed4       ??_C@_05HGHHAHAP@log10?$AA@ 0000000140024ed4     libucrt:log_special.obj
 0002:00007edc       ??_C@_04EIAKFFMI@sqrt?$AA@ 0000000140024edc     libucrt:fpexcept.obj
 0002:00007ee4       ??_C@_02GMHACPFF@?$CFu?$AA@ 0000000140024ee4     prime_sieve.obj
 0002:00007ee8       ??_C@_0CH@FEJKDFCO@error?3?5sieve?5size?5must?5be?5at?5lea@ 0000000140024ee8     prime_sieve.obj
 0002:00007f10       ??_C@_0CK@BKMBHHBH@error?3?5can?8t?5get?5?$CFu?5kB?5storage?5f@ 0000000140024f10     prime_sieve.obj
 0002:00007f40       ??_C@_0CI@POKFDBHC@error?3?5can?8t?5get?5storage?5for?5?$CFu?5@ 0000000140024f40     prime_sieve.obj
 0002:00007f68       ??_C@_03OBICDNNO@?$CFu?6?$AA@ 0000000140024f68     prime_sieve.obj
 0002:00007f70       ??_C@_0BN@GOHPCIII@?$CD?5?$HL?$CFu?5?$DM?$DN?5primes?5?$DM?$DN?5?$CFu?$HN?5?$DN?5?$CFu?6?$AA@ 0000000140024f70     prime_sieve.obj
 0002:00007f90       ??_C@_0BA@OPGLDDLD@?$CF?412lf?5?5?$CF?412lf?6?$AA@ 0000000140024f90     prime_sieve.obj
 0002:00007fa0       ??_C@_06NPHBEFHM@primes?$AA@ 0000000140024fa0     prime_sieve.obj
 0002:00007fa8       ??_C@_02DPKJAMEF@?$CFd?$AA@ 0000000140024fa8     prime_sieve.obj
 0002:00007fac       ??_C@_01KDCPPGHE@r?$AA@    0000000140024fac     main.obj
 0002:00007fb0       ??_C@_01NOFIACDB@w?$AA@    0000000140024fb0     main.obj
 0002:00007fb8       ??_C@_0BE@GMKEACM@Output?5saved?5in?5?$CFs?6?$AA@ 0000000140024fb8     main.obj
 0002:00007fd0       __real@3fb999999999999a    0000000140024fd0     prime_sieve.obj
 0002:00007fd8       __real@3fd434bb2a67f2a3    0000000140024fd8     prime_sieve.obj
 0002:00007fe0       __real@3fe2788cfc6fb4f1    0000000140024fe0     prime_sieve.obj
 0002:00007fe8       __real@3ff0000000000000    0000000140024fe8     prime_sieve.obj
 0002:00007ff0       __real@3ff03d70a3d70a3d    0000000140024ff0     prime_sieve.obj
 0002:00007ff8       __real@bff0000000000000    0000000140024ff8     libucrt:floor.obj
 0002:00008210       __log_256_lead             0000000140025210     libucrt:log_256_lead_tail_table.obj
 0002:00008a20       __log_256_tail             0000000140025a20     libucrt:log_256_lead_tail_table.obj
 0002:00009290       _load_config_used          0000000140026290     LIBCMT:loadcfg.obj
 0002:000096a0       __rtc_iaa                  00000001400266a0     LIBCMT:_initsect_.obj
 0002:000096a8       __rtc_izz                  00000001400266a8     LIBCMT:_initsect_.obj
 0002:000096b0       __rtc_taa                  00000001400266b0     LIBCMT:_initsect_.obj
 0002:000096b8       __rtc_tzz                  00000001400266b8     LIBCMT:_initsect_.obj
 0002:0000a78c       __IMPORT_DESCRIPTOR_KERNEL32 000000014002778c     kernel32:KERNEL32.dll
 0002:0000a7a0       __NULL_IMPORT_DESCRIPTOR   00000001400277a0     kernel32:KERNEL32.dll
 0003:00000000       __security_cookie          0000000140028000     LIBCMT:gs_cookie.obj
 0003:00000008       __security_cookie_complement 0000000140028008     LIBCMT:gs_cookie.obj
 0003:00000010       __scrt_native_dllmain_reason 0000000140028010     LIBCMT:utility.obj
 0003:00000014       __scrt_default_matherr     0000000140028014     LIBCMT:matherr.obj
 0003:00000018       __isa_available            0000000140028018     LIBCMT:_cpu_disp_.obj
 0003:0000001c       __isa_enabled              000000014002801c     LIBCMT:_cpu_disp_.obj
 0003:00000020       __memcpy_nt_iters          0000000140028020     LIBCMT:_cpu_disp_.obj
 0003:00000040       _iob                       0000000140028040     libucrt:_file.obj
 0003:00000148       __abort_behavior           0000000140028148     libucrt:abort.obj
 0003:00000160       __badioinfo                0000000140028160     libucrt:ioinit.obj
 0003:000001b0       __acrt_initial_locale_data 00000001400281b0     libucrt:nlsdata.obj
 0003:00000308       __acrt_initial_locale_pointers 0000000140028308     libucrt:nlsdata.obj
 0003:00000318       __acrt_wide_c_locale_string 0000000140028318     libucrt:nlsdata.obj
 0003:00000320       __acrt_initial_multibyte_data 0000000140028320     libucrt:mbctype.obj
 0003:00000548       __acrt_current_multibyte_data 0000000140028548     libucrt:mbctype.obj
 0003:00000650       _mbctype                   0000000140028650     libucrt:mbctype.obj
 0003:00000760       _mbcasemap                 0000000140028760     libucrt:mbctype.obj
 0003:00000860       __acrt_lconv_c             0000000140028860     libucrt:localeconv.obj
 0003:000008f8       __acrt_lconv_static_decimal 00000001400288f8     libucrt:localeconv.obj
 0003:000008fc       __acrt_lconv_static_W_decimal 00000001400288fc     libucrt:localeconv.obj
 0003:00000900       __globallocalestatus       0000000140028900     libucrt:glstatus.obj
 0003:00000910       _lookuptrailbytes          0000000140028910     libucrt:read.obj
 0003:00000a20       __dcrt_lowio_console_output_handle 0000000140028a20     libucrt:initcon.obj
 0003:00000a34       _fltused                   0000000140028a34     LIBCMT:fltused.obj
 0003:00000fb0       __scrt_current_native_startup_state 0000000140028fb0     LIBCMT:utility.obj
 0003:00000fb8       __scrt_native_startup_lock 0000000140028fb8     LIBCMT:utility.obj
 0003:00001000       ?__type_info_root_node@@3U__type_info_node@@A 0000000140029000     LIBCMT:tncleanup.obj
 0003:00001010       __scrt_debugger_hook_flag  0000000140029010     LIBCMT:utility_desktop.obj
 0003:00001014       __favor                    0000000140029014     LIBCMT:_cpu_disp_.obj
 0003:00001138       __pPurecall                0000000140029138     libvcruntime:purevirt_data.obj
 0003:00001140       ?pArgList@UnDecorator@@0PEAVReplicator@@EA 0000000140029140     libvcruntime:undname.obj
 0003:00001148       ?pZNameList@UnDecorator@@0PEAVReplicator@@EA 0000000140029148     libvcruntime:undname.obj
 0003:00001150       ?pTemplateArgList@UnDecorator@@0PEAVReplicator@@EA 0000000140029150     libvcruntime:undname.obj
 0003:00001158       ?gName@UnDecorator@@0PEBDEB 0000000140029158     libvcruntime:undname.obj
 0003:00001160       ?name@UnDecorator@@0PEBDEB 0000000140029160     libvcruntime:undname.obj
 0003:00001168       ?outputString@UnDecorator@@0PEADEA 0000000140029168     libvcruntime:undname.obj
 0003:00001170       ?maxStringLength@UnDecorator@@0HA 0000000140029170     libvcruntime:undname.obj
 0003:00001174       ?disableFlags@UnDecorator@@0KA 0000000140029174     libvcruntime:undname.obj
 0003:00001178       ?fExplicitTemplateParams@UnDecorator@@0_NA 0000000140029178     libvcruntime:undname.obj
 0003:00001179       ?fGetTemplateArgumentList@UnDecorator@@0_NA 0000000140029179     libvcruntime:undname.obj
 0003:00001180       ?m_pGetParameter@UnDecorator@@0P6APEADJ@ZEA 0000000140029180     libvcruntime:undname.obj
 0003:000011b0       _nstream                   00000001400291b0     libucrt:_file.obj
 0003:000011b8       __piob                     00000001400291b8     libucrt:_file.obj
 0003:000011c0       _cflush                    00000001400291c0     libucrt:_file.obj
 0003:000012d8       _environ_table             00000001400292d8     libucrt:environment_initialization.obj
 0003:000012e0       _wenviron_table            00000001400292e0     libucrt:environment_initialization.obj
 0003:000012e8       __dcrt_initial_wide_environment 00000001400292e8     libucrt:environment_initialization.obj
 0003:000012f0       __dcrt_initial_narrow_environment 00000001400292f0     libucrt:environment_initialization.obj
 0003:0000130c       __argc                     000000014002930c     libucrt:argv_data.obj
 0003:00001310       __argv                     0000000140029310     libucrt:argv_data.obj
 0003:00001318       __wargv                    0000000140029318     libucrt:argv_data.obj
 0003:00001320       _acmdln                    0000000140029320     libucrt:argv_data.obj
 0003:00001328       _wcmdln                    0000000140029328     libucrt:argv_data.obj
 0003:00001330       _pgmptr                    0000000140029330     libucrt:argv_data.obj
 0003:00001338       __acrt_locale_changed_data 0000000140029338     libucrt:wsetlocale.obj
 0003:00001340       _commode                   0000000140029340     libucrt:ncommode.obj
 0003:00001348       __acrt_atexit_table        0000000140029348     libucrt:onexit.obj
 0003:00001360       __acrt_at_quick_exit_table 0000000140029360     libucrt:onexit.obj
 0003:00001530       __pioinfo                  0000000140029530     libucrt:ioinit.obj
 0003:00001930       _nhandle                   0000000140029930     libucrt:ioinit.obj
 0003:00001940       __acrt_stdout_buffer       0000000140029940     libucrt:_sftbuf.obj
 0003:00001948       __acrt_stderr_buffer       0000000140029948     libucrt:_sftbuf.obj
 0003:00001950       __acrt_current_locale_data 0000000140029950     libucrt:nlsdata.obj
 0003:00001958       __mbcodepage               0000000140029958     libucrt:mbctype.obj
 0003:0000195c       __ismbcodepage             000000014002995c     libucrt:mbctype.obj
 0003:00001960       __mbulinfo                 0000000140029960     libucrt:mbctype.obj
 0003:00001970       __mblocalename             0000000140029970     libucrt:mbctype.obj
 0003:00001b8c       _fmode                     0000000140029b8c     libucrt:txtmode.obj
 0003:00001b90       __acrt_lconv_static_null   0000000140029b90     libucrt:localeconv.obj
 0003:00001b94       __acrt_lconv_static_W_null 0000000140029b94     libucrt:localeconv.obj
 0003:00001b98       __acrt_heap                0000000140029b98     libucrt:heap_handle.obj
 0003:00001bc8       _umaskval                  0000000140029bc8     libucrt:umask.obj
 0003:00001bcc       __fma3_is_available        0000000140029bcc     libucrt:fma3_available.obj
 0003:00001bd0       __use_fma3_lib             0000000140029bd0     libucrt:fma3_available.obj
 0003:00001bd8       sum                        0000000140029bd8     prime_sieve.obj
 0003:00001be0       __scrt_ucrt_dll_is_in_use  0000000140029be0     <common>
 0003:00001be8       __dyn_tls_dtor_callback    0000000140029be8     <common>
 0003:00001bf0       __dyn_tls_init_callback    0000000140029bf0     <common>
 0003:00001bf8       _pDestructExceptionObject  0000000140029bf8     <common>
 0003:00001c00       ?_OptionsStorage@?1??__local_stdio_scanf_options@@9@9 0000000140029c00     <common>
 0003:00001c08       ?_OptionsStorage@?1??__local_stdio_printf_options@@9@9 0000000140029c08     <common>

 entry point at        0001:000019e4

 Static symbols

 0000:fffd1000       .debug$S                   0000000140000000     kernel32:KERNEL32.dll
 0000:fffd1000       .debug$S                   0000000140000000     kernel32:KERNEL32.dll
 0000:fffd1000       .debug$S                   0000000140000000     kernel32:KERNEL32.dll
 0000:fffd1000       .debug$S                   0000000140000000     kernel32:KERNEL32.dll
 0000:fffd1000       .debug$S                   0000000140000000     kernel32:KERNEL32.dll
 0000:fffd1000       .debug$S                   0000000140000000     kernel32:KERNEL32.dll
 0000:fffd1000       .debug$S                   0000000140000000     kernel32:KERNEL32.dll
 0000:fffd1000       .debug$S                   0000000140000000     kernel32:KERNEL32.dll
 0000:fffd1000       .debug$S                   0000000140000000     kernel32:KERNEL32.dll
 0000:fffd1000       .debug$S                   0000000140000000     kernel32:KERNEL32.dll
 0000:fffd1000       .debug$S                   0000000140000000     kernel32:KERNEL32.dll
 0000:fffd1000       .debug$S                   0000000140000000     kernel32:KERNEL32.dll
 0000:fffd1000       .debug$S                   0000000140000000     kernel32:KERNEL32.dll
 0000:fffd1000       .debug$S                   0000000140000000     kernel32:KERNEL32.dll
 0000:fffd1000       .debug$S                   0000000140000000     kernel32:KERNEL32.dll
 0000:fffd1000       .debug$S                   0000000140000000     kernel32:KERNEL32.dll
 0000:fffd1000       .debug$S                   0000000140000000     kernel32:KERNEL32.dll
 0000:fffd1000       .debug$S                   0000000140000000     kernel32:KERNEL32.dll
 0000:fffd1000       .debug$S                   0000000140000000     kernel32:KERNEL32.dll
 0000:fffd1000       .debug$S                   0000000140000000     kernel32:KERNEL32.dll
 0000:fffd1000       .debug$S                   0000000140000000     kernel32:KERNEL32.dll
 0000:fffd1000       .debug$S                   0000000140000000     kernel32:KERNEL32.dll
 0000:fffd1000       .debug$S                   0000000140000000     kernel32:KERNEL32.dll
 0000:fffd1000       .debug$S                   0000000140000000     kernel32:KERNEL32.dll
 0000:fffd1000       .debug$S                   0000000140000000     kernel32:KERNEL32.dll
 0000:fffd1000       .debug$S                   0000000140000000     kernel32:KERNEL32.dll
 0000:fffd1000       .debug$S                   0000000140000000     kernel32:KERNEL32.dll
 0000:fffd1000       .debug$S                   0000000140000000     kernel32:KERNEL32.dll
 0000:fffd1000       .debug$S                   0000000140000000     kernel32:KERNEL32.dll
 0000:fffd1000       .debug$S                   0000000140000000     kernel32:KERNEL32.dll
 0000:fffd1000       .debug$S                   0000000140000000     kernel32:KERNEL32.dll
 0000:fffd1000       .debug$S                   0000000140000000     kernel32:KERNEL32.dll
 0000:fffd1000       .debug$S                   0000000140000000     kernel32:KERNEL32.dll
 0000:fffd1000       .debug$S                   0000000140000000     kernel32:KERNEL32.dll
 0000:fffd1000       .debug$S                   0000000140000000     kernel32:KERNEL32.dll
 0000:fffd1000       .debug$S                   0000000140000000     kernel32:KERNEL32.dll
 0000:fffd1000       .debug$S                   0000000140000000     kernel32:KERNEL32.dll
 0000:fffd1000       .debug$S                   0000000140000000     kernel32:KERNEL32.dll
 0000:fffd1000       .debug$S                   0000000140000000     kernel32:KERNEL32.dll
 0000:fffd1000       .debug$S                   0000000140000000     kernel32:KERNEL32.dll
 0000:fffd1000       .debug$S                   0000000140000000     kernel32:KERNEL32.dll
 0000:fffd1000       .debug$S                   0000000140000000     kernel32:KERNEL32.dll
 0000:fffd1000       .debug$S                   0000000140000000     kernel32:KERNEL32.dll
 0000:fffd1000       .debug$S                   0000000140000000     kernel32:KERNEL32.dll
 0000:fffd1000       .debug$S                   0000000140000000     kernel32:KERNEL32.dll
 0000:fffd1000       .debug$S                   0000000140000000     kernel32:KERNEL32.dll
 0000:fffd1000       .debug$S                   0000000140000000     kernel32:KERNEL32.dll
 0000:fffd1000       .debug$S                   0000000140000000     kernel32:KERNEL32.dll
 0000:fffd1000       .debug$S                   0000000140000000     kernel32:KERNEL32.dll
 0000:fffd1000       .debug$S                   0000000140000000     kernel32:KERNEL32.dll
 0000:fffd1000       .debug$S                   0000000140000000     kernel32:KERNEL32.dll
 0000:fffd1000       .debug$S                   0000000140000000     kernel32:KERNEL32.dll
 0000:fffd1000       .debug$S                   0000000140000000     kernel32:KERNEL32.dll
 0000:fffd1000       .debug$S                   0000000140000000     kernel32:KERNEL32.dll
 0000:fffd1000       .debug$S                   0000000140000000     kernel32:KERNEL32.dll
 0000:fffd1000       .debug$S                   0000000140000000     kernel32:KERNEL32.dll
 0000:fffd1000       .debug$S                   0000000140000000     kernel32:KERNEL32.dll
 0000:fffd1000       .debug$S                   0000000140000000     kernel32:KERNEL32.dll
 0000:fffd1000       .debug$S                   0000000140000000     kernel32:KERNEL32.dll
 0000:fffd1000       .debug$S                   0000000140000000     kernel32:KERNEL32.dll
 0000:fffd1000       .debug$S                   0000000140000000     kernel32:KERNEL32.dll
 0000:fffd1000       .debug$S                   0000000140000000     kernel32:KERNEL32.dll
 0000:fffd1000       .debug$S                   0000000140000000     kernel32:KERNEL32.dll
 0000:fffd1000       .debug$S                   0000000140000000     kernel32:KERNEL32.dll
 0000:fffd1000       .debug$S                   0000000140000000     kernel32:KERNEL32.dll
 0000:fffd1000       .debug$S                   0000000140000000     kernel32:KERNEL32.dll
 0000:fffd1000       .debug$S                   0000000140000000     kernel32:KERNEL32.dll
 0000:fffd1000       .debug$S                   0000000140000000     kernel32:KERNEL32.dll
 0000:fffd1000       .debug$S                   0000000140000000     kernel32:KERNEL32.dll
 0000:fffd1000       .debug$S                   0000000140000000     kernel32:KERNEL32.dll
 0000:fffd1000       .debug$S                   0000000140000000     kernel32:KERNEL32.dll
 0000:fffd1000       .debug$S                   0000000140000000     kernel32:KERNEL32.dll
 0000:fffd1000       .debug$S                   0000000140000000     kernel32:KERNEL32.dll
 0000:fffd1000       .debug$S                   0000000140000000     kernel32:KERNEL32.dll
 0000:fffd1000       .debug$S                   0000000140000000     kernel32:KERNEL32.dll
 0000:fffd1000       .debug$S                   0000000140000000     kernel32:KERNEL32.dll
 0000:fffd1000       .debug$S                   0000000140000000     kernel32:KERNEL32.dll
 0000:fffd1000       .debug$S                   0000000140000000     kernel32:KERNEL32.dll
 0000:fffd1000       .debug$S                   0000000140000000     kernel32:KERNEL32.dll
 0000:fffd1000       .debug$S                   0000000140000000     kernel32:KERNEL32.dll
 0000:fffd1000       .debug$S                   0000000140000000     kernel32:KERNEL32.dll
 0000:fffd1000       .debug$S                   0000000140000000     kernel32:KERNEL32.dll
 0000:fffd1000       .debug$S                   0000000140000000     kernel32:KERNEL32.dll
 0000:fffd1000       .debug$S                   0000000140000000     kernel32:KERNEL32.dll
 0000:fffd1000       .debug$S                   0000000140000000     kernel32:KERNEL32.dll
 0000:fffd1000       .debug$S                   0000000140000000     kernel32:KERNEL32.dll
 0000:fffd1000       .debug$S                   0000000140000000     kernel32:KERNEL32.dll
 0000:fffd1000       .debug$S                   0000000140000000     kernel32:KERNEL32.dll
 0000:fffd1000       .debug$S                   0000000140000000     kernel32:KERNEL32.dll
 0001:000014b0       $LN589                     00000001400024b0     prime_sieve.obj
 0001:000014d8       $LN588                     00000001400024d8     prime_sieve.obj
 0001:000014f8       $LN587                     00000001400024f8     prime_sieve.obj
 0001:00001518       $LN586                     0000000140002518     prime_sieve.obj
 0001:00001538       $LN585                     0000000140002538     prime_sieve.obj
 0001:00001558       $LN584                     0000000140002558     prime_sieve.obj
 0001:00001578       $LN583                     0000000140002578     prime_sieve.obj
 0001:00001598       $LN582                     0000000140002598     prime_sieve.obj
 0001:000015b8       $LN581                     00000001400025b8     prime_sieve.obj
 0001:000015d8       $LN580                     00000001400025d8     prime_sieve.obj
 0001:000015f8       $LN579                     00000001400025f8     prime_sieve.obj
 0001:00001750       $$000000                   0000000140002750     LIBCMT:_amdsecgs_.obj
 0001:00001784       ?pre_c_initialization@@YAHXZ 0000000140002784 f   LIBCMT:exe_main.obj
 0001:00001840       ?post_pgo_initialization@@YAHXZ 0000000140002840 f   LIBCMT:exe_main.obj
 0001:00001850       ?pre_cpp_initialization@@YAXXZ 0000000140002850 f   LIBCMT:exe_main.obj
 0001:0000186c       ?__scrt_common_main_seh@@YAHXZ 000000014000286c f   LIBCMT:exe_main.obj
 0001:00001bb0       capture_current_context    0000000140002bb0 f   LIBCMT:gs_report.obj
 0001:00001c20       capture_previous_context   0000000140002c20 f   LIBCMT:gs_report.obj
 0001:00002700       $$000000                   0000000140003700     libvcruntime:memset.obj
 0001:000027ec       MsetTab                    00000001400037ec     libvcruntime:memset.obj
 0001:000028b0       $$000000                   00000001400038b0     libvcruntime:_jmpuwind_.obj
 0001:00002a28       ?try_get_function@@YAPEAXW4function_id@?A0x679b24ab@@QEBDQEBW4module_id@2@2@Z 0000000140003a28 f   libvcruntime:winapi_downlevel.obj
 0001:00003418       ??R<lambda_0a64b6a4deda75c01876f29c44fc5eb3>@@QEBAHXZ 0000000140004418 f   libucrt:output.obj
 0001:000084fc       ??R<lambda_3a6204444a8bad05601fdaf7664f6f17>@@QEBAHXZ 00000001400094fc f   libucrt:input.obj
 0001:000085f0       ??R<lambda_5ffa2d601484df6a17cc9a350962665c>@@QEBA_NXZ 00000001400095f0 f   libucrt:input.obj
 0001:000085f0       ??R<lambda_d101c2b4ad3778eb23b701cc8964de65>@@QEBA_NXZ 00000001400095f0 f   libucrt:input.obj
 0001:000085f0       ??R<lambda_5b936a367a2157d8f8fe79b470b291e7>@@QEBA_NXZ 00000001400095f0 f   libucrt:input.obj
 0001:00008650       ??R<lambda_b9821a569aa5955fc6d82138aaf53eb6>@@QEBA_NXZ 0000000140009650 f   libucrt:input.obj
 0001:00008650       ??R<lambda_faed2df532bb37849f111efe98abdd75>@@QEBA_NXZ 0000000140009650 f   libucrt:input.obj
 0001:00008650       ??R<lambda_037e91eb5f7fe3a681de8d8491e423b3>@@QEBA_NXZ 0000000140009650 f   libucrt:input.obj
 0001:0000c50c       memcpy_s                   000000014000d50c f   libucrt:cfout.obj
 0001:0000c50c       memcpy_s                   000000014000d50c f   libucrt:input.obj
 0001:0000c59c       ??$common_fsopen@D@@YAPEAU_iobuf@@QEBD0H@Z 000000014000d59c f   libucrt:fopen.obj
 0001:0000c9a0       ??$parse_command_line@D@@YAXPEADPEAPEAD0PEA_K2@Z 000000014000d9a0 f   libucrt:argv_parsing.obj
 0001:0000cd38       ??$common_get_or_create_environment_nolock@D@@YAPEAPEADXZ 000000014000dd38 f   libucrt:environment_initialization.obj
 0001:0000cd80       ??$common_initialize_environment_nolock@D@@YAHXZ 000000014000dd80 f   libucrt:environment_initialization.obj
 0001:0000cdec       ??$create_environment@D@@YAQEAPEADQEAD@Z 000000014000ddec f   libucrt:environment_initialization.obj
 0001:0000cee8       ??$free_environment@_W@@YAXQEAPEA_W@Z 000000014000dee8 f   libucrt:environment_initialization.obj
 0001:0000cee8       ??$free_environment@D@@YAXQEAPEAD@Z 000000014000dee8 f   libucrt:environment_initialization.obj
 0001:0000cf2c       ??$initialize_environment_by_cloning_nolock@D@@YAHXZ 000000014000df2c f   libucrt:environment_initialization.obj
 0001:0000d000       ??$uninitialize_environment_internal@D@@YAXAEAPEAPEAD@Z 000000014000e000 f   libucrt:environment_initialization.obj
 0001:0000d01c       ??$uninitialize_environment_internal@_W@@YAXAEAPEAPEA_W@Z 000000014000e01c f   libucrt:environment_initialization.obj
 0001:0000d168       ?atexit_exception_filter@@YAHK@Z 000000014000e168 f   libucrt:exit.obj
 0001:0000d174       ?common_exit@@YAXHW4_crt_exit_cleanup_mode@@W4_crt_exit_return_mode@@@Z 000000014000e174 f   libucrt:exit.obj
 0001:0000d2e0       ?exit_or_terminate_process@@YAXI@Z 000000014000e2e0 f   libucrt:exit.obj
 0001:0000d32c       ?try_cor_exit_process@@YAXI@Z 000000014000e32c f   libucrt:exit.obj
 0001:0000d87c       ??R<lambda_4e60a939b0d047cfe11ddc22648dfba9>@@QEBAHXZ 000000014000e87c f   libucrt:onexit.obj
 0001:0000db2c       initialize_global_variables 000000014000eb2c f   libucrt:initialization.obj
 0001:0000db40       initialize_c               000000014000eb40 f   libucrt:initialization.obj
 0001:0000db64       report_memory_leaks        000000014000eb64 f   libucrt:initialization.obj
 0001:0000db64       uninitialize_c             000000014000eb64 f   libucrt:initialization.obj
 0001:0000db64       uninitialize_global_state_isolation 000000014000eb64 f   libucrt:initialization.obj
 0001:0000db64       initialize_global_state_isolation 000000014000eb64 f   libucrt:initialization.obj
 0001:0000db64       initialize_environment     000000014000eb64 f   libucrt:initialization.obj
 0001:0000db68       uninitialize_environment   000000014000eb68 f   libucrt:initialization.obj
 0001:0000db78       initialize_pointers        000000014000eb78 f   libucrt:initialization.obj
 0001:0000dbcc       uninitialize_vcruntime     000000014000ebcc f   libucrt:initialization.obj
 0001:0000dbd4       uninitialize_allocated_memory 000000014000ebd4 f   libucrt:initialization.obj
 0001:0000e844       ?try_get_function@@YAPEAXW4function_id@?A0x63058377@@QEBDQEBW4module_id@2@2@Z 000000014000f844 f   libucrt:winapi_thunks.obj
 0001:0000f0e8       common_flush_all           00000001400100e8 f   libucrt:fflush.obj
 0001:0000f20c       ?initialize_inherited_file_handles_nolock@@YAXXZ 000000014001020c f   libucrt:ioinit.obj
 0001:0000f2f8       ?initialize_stdio_handles_nolock@@YAXXZ 00000001400102f8 f   libucrt:ioinit.obj
 0001:0000f558       ?internal_isupper_l@@YA_NHQEAU__crt_locale_pointers@@@Z 0000000140010558 f   libucrt:tolower_toupper.obj
 0001:0000fee4       ?construct_ptd_array@@YAXQEAU__acrt_ptd@@@Z 0000000140010ee4 f   libucrt:per_thread_data.obj
 0001:0000ffb4       ?destroy_fls@@YAXPEAX@Z    0000000140010fb4 f   libucrt:per_thread_data.obj
 0001:0000ffd4       ?destroy_ptd_array@@YAXQEAU__acrt_ptd@@@Z 0000000140010fd4 f   libucrt:per_thread_data.obj
 0001:000100cc       ?replace_current_thread_locale_nolock@@YAXQEAU__acrt_ptd@@QEAU__crt_locale_data@@@Z 00000001400110cc f   libucrt:per_thread_data.obj
 0001:00010398       ?fp_format_a@@YAHQEBNPEAD_KQEAD2H_NIQEAU__crt_locale_pointers@@@Z 0000000140011398 f   libucrt:cvt.obj
 0001:000106f8       ?fp_format_e@@YAHQEBNQEAD_K12H_NIQEAU__crt_locale_pointers@@@Z 00000001400116f8 f   libucrt:cvt.obj
 0001:000107c8       ?fp_format_e_internal@@YAHQEAD_KH_NIQEAU_strflt@@2QEAU__crt_locale_pointers@@@Z 00000001400117c8 f   libucrt:cvt.obj
 0001:000109a4       ?fp_format_f_internal@@YAHQEAD_KHQEAU_strflt@@_NQEAU__crt_locale_pointers@@@Z 00000001400119a4 f   libucrt:cvt.obj
 0001:00010aec       ?fp_format_g@@YAHQEBNQEAD_K12H_NIQEAU__crt_locale_pointers@@@Z 0000000140011aec f   libucrt:cvt.obj
 0001:00010c24       ?fp_format_nan_or_infinity@@YAHW4__acrt_fp_class@@_NPEAD_K1@Z 0000000140011c24 f   libucrt:cvt.obj
 0001:00011460       ?find_or_allocate_unused_stream_nolock@@YA?AV__crt_stdio_stream@@XZ 0000000140012460 f   libucrt:stream.obj
 0001:00011a58       ?<helper_func_cdecl>@<lambda_2feae5270eb4d0d5532525f423405775>@@CAHPEBX0@Z 0000000140012a58 f   libucrt:argv_wildcards.obj
 0001:00011a6c       ??$common_expand_argv_wildcards@D@@YAHQEAPEADQEAPEAPEAD@Z 0000000140012a6c f   libucrt:argv_wildcards.obj
 0001:00011c78       ??$copy_and_add_argument_to_buffer@D@@YAHQEBD0_KAEAV?$argument_list@D@?A0xca0879c4@@@Z 0000000140012c78 f   libucrt:argv_wildcards.obj
 0001:00011d88       ??$expand_argument_wildcards@D@@YAHQEAD0AEAV?$argument_list@D@?A0xca0879c4@@@Z 0000000140012d88 f   libucrt:argv_wildcards.obj
 0001:0001203c       ??R<lambda_ad1ced32f4ac17aa236e5ef05d6b3b7c>@@QEBAXXZ 000000014001303c f   libucrt:mbctype.obj
 0001:00012254       ?getSystemCP@@YAHH@Z       0000000140013254 f   libucrt:mbctype.obj
 0001:000122d4       ?setSBCS@@YAXPEAU__crt_multibyte_data@@@Z 00000001400132d4 f   libucrt:mbctype.obj
 0001:00012364       ?setSBUpLow@@YAXPEAU__crt_multibyte_data@@@Z 0000000140013364 f   libucrt:mbctype.obj
 0001:00012548       ?setmbcp_internal@@YAHH_N@Z 0000000140013548 f   libucrt:mbctype.obj
 0001:00012a90       ?x_ismbbtype_l@@YAHPEAU__crt_locale_pointers@@IHH@Z 0000000140013a90 f   libucrt:ismbbyte.obj
 0001:00012c20       ??$common_set_variable_in_environment_nolock@D@@YAHQEADH@Z 0000000140013c20 f   libucrt:setenv.obj
 0001:00012f10       ??$copy_environment@D@@YAPEAPEADQEAPEAD@Z 0000000140013f10 f   libucrt:setenv.obj
 0001:00013740       ?free_crt_array_internal@@YAXQEAPEBX_K@Z 0000000140014740 f   libucrt:inittime.obj
 0001:000143bc       ?GetTableIndexFromLocaleName@@YAHPEB_W@Z 00000001400153bc f   libucrt:lcidtoname_downlevel.obj
 0001:000145d8       ?write_double_translated_ansi_nolock@@YA?AUwrite_result@?A0x9c548279@@HQEBDI@Z 00000001400155d8 f   libucrt:write.obj
 0001:000147e0       ?write_text_ansi_nolock@@YA?AUwrite_result@?A0x9c548279@@HQEBDI@Z 00000001400157e0 f   libucrt:write.obj
 0001:000148e8       ?write_text_utf16le_nolock@@YA?AUwrite_result@?A0x9c548279@@HQEBDI@Z 00000001400158e8 f   libucrt:write.obj
 0001:00014a04       ?write_text_utf8_nolock@@YA?AUwrite_result@?A0x9c548279@@HQEBDI@Z 0000000140015a04 f   libucrt:write.obj
 0001:00014f88       ?__acrt_LCMapStringA_stat@@YAHPEAU__crt_locale_pointers@@PEB_WKPEBDHPEADHHH@Z 0000000140015f88 f   libucrt:lcmapstringa.obj
 0001:000167a8       ??$write_buffer_nolock@D@@YA_NDV__crt_stdio_stream@@@Z 00000001400177a8 f   libucrt:_flsbuf.obj
 0001:000169f4       ??$common_refill_and_read_nolock@D@@YAHV__crt_stdio_stream@@@Z 00000001400179f4 f   libucrt:_filbuf.obj
 0001:00016c90       $$000000                   0000000140017c90     libucrt:strncmp.obj
 0001:00016e94       ??$common_sopen_dispatch@D@@YAHQEBDHHHQEAHH@Z 0000000140017e94 f   libucrt:open.obj
 0001:00016f74       ?configure_text_mode@@YAHHUfile_options@?A0x656cf9f4@@HAEAW4__crt_lowio_text_mode@@@Z 0000000140017f74 f   libucrt:open.obj
 0001:00017208       ?decode_options@@YA?AUfile_options@?A0x656cf9f4@@HHH@Z 0000000140018208 f   libucrt:open.obj
 0001:00017414       ?truncate_ctrl_z_if_present@@YAHH@Z 0000000140018414 f   libucrt:open.obj
 0001:00017990       ?shortsort@@YAXPEAD0_KP6AHPEBX2@Z@Z 0000000140018990 f   libucrt:qsort.obj
 0001:00017fa8       ?initialize_multibyte@@YAHXZ 0000000140018fa8 f   libucrt:multibyte_initializer.obj
 0001:00018198       ??$common_lseek@_J@@YA_JH_JH@Z 0000000140019198 f   libucrt:lseek.obj
 0001:00018288       ??$common_lseek_nolock@_J@@YA_JH_JH@Z 0000000140019288 f   libucrt:lseek.obj
 0001:00018530       $$000000                   0000000140019530     libucrt:log10.obj
 0001:00018adc       ??$translate_text_mode_nolock@_W@@YAHHQEA_W_K@Z 0000000140019adc f   libucrt:read.obj
 0001:00018d0c       ?translate_ansi_or_utf8_nolock@@YAHHQEAD_KQEA_W1@Z 0000000140019d0c f   libucrt:read.obj
 0001:00019634       common_control87           000000014001a634 f   libucrt:ieee.obj
 0001:000198d0       $$000000                   000000014001a8d0     libucrt:fpsr.obj
 0001:00019ba4       ?InternalCompareStringA@@YAHPEAU__crt_locale_pointers@@PEB_WKPEBDH2HH@Z 000000014001aba4 f   libucrt:comparestringa.obj
 0001:0001a020       _call_matherr              000000014001b020 f   libucrt:libm_error.obj
 0001:0001a088       _exception_enabled         000000014001b088 f   libucrt:libm_error.obj
 0001:0001a340       _log_special_common        000000014001b340 f   libucrt:log_special.obj
 0001:0001a970       $$000000                   000000014001b970     LIBCMT:_chkstk_.obj
 0001:0001a9e0       $$000000                   000000014001b9e0     libvcruntime:memcpy.obj
 0001:0001aa87       MoveSmall                  000000014001ba87     libvcruntime:memcpy.obj
 0001:0001ae30       $$000000                   000000014001be30     libvcruntime:memcmp.obj
 0001:0001b190       $$000000                   000000014001c190     libucrt:log.obj
 0001:0001b790       $$000000                   000000014001c790     LIBCMT:_guard_dispatch_.obj
 0001:0001b7b0       ?filt$0@?0??__scrt_common_main_seh@@YAHXZ@4HA 000000014001c7b0 f   LIBCMT:exe_main.obj
 0001:0001b7ce       __scrt_is_nonwritable_in_current_image$filt$0 000000014001c7ce f   LIBCMT:utility.obj
 0001:0001b7e6       ?fin$0@?0???$?RV<lambda_aa279a7bcb127014629d5b1d62c7325d>@@AEAV<lambda_0a64b6a4deda75c01876f29c44fc5eb3>@@V<lambda_3323e69fbefe9d1a11713e670d47cdfa>@@@?$__crt_seh_guarded_call@H@@QEAAH$$QEAV<lambda_aa279a7bcb127014629d5b1d62c7325d>@@AEAV<lambda_0a64b6a4deda75c01876f29c44fc5eb3>@@$$QEAV<lambda_3323e69fbefe9d1a11713e670d47cdfa>@@@Z@4HA 000000014001c7e6 f   libucrt:output.obj
 0001:0001b7e6       ?fin$0@?0???$?RV<lambda_c01e8233c1997d6cc4b8f1fd672e07e5>@@AEAV<lambda_3a6204444a8bad05601fdaf7664f6f17>@@V<lambda_b6ae1896c9cebd71befa8310523e5efb>@@@?$__crt_seh_guarded_call@H@@QEAAH$$QEAV<lambda_c01e8233c1997d6cc4b8f1fd672e07e5>@@AEAV<lambda_3a6204444a8bad05601fdaf7664f6f17>@@$$QEAV<lambda_b6ae1896c9cebd71befa8310523e5efb>@@@Z@4HA 000000014001c7e6 f   libucrt:input.obj
 0001:0001b801       ?fin$0@?0???$common_fsopen@D@@YAPEAU_iobuf@@QEBD0H@Z@4HA 000000014001c801 f   libucrt:fopen.obj
 0001:0001b82c       fclose$fin$0               000000014001c82c f   libucrt:fclose.obj
 0001:0001b844       ?filt$0@?0??common_exit@@YAXHW4_crt_exit_cleanup_mode@@W4_crt_exit_return_mode@@@Z@4HA 000000014001c844 f   libucrt:exit.obj
 0001:0001b85f       ?fin$1@?0??common_exit@@YAXHW4_crt_exit_cleanup_mode@@W4_crt_exit_return_mode@@@Z@4HA 000000014001c85f f   libucrt:exit.obj
 0001:0001b878       ?fin$0@?0???$?RV<lambda_e24bbb7b643b32fcea6fa61b31d4c984>@@AEAV<lambda_275893d493268fdec8709772e3fcec0e>@@V<lambda_9d71df4d7cf3f480f8d633942495c3b0>@@@?$__crt_seh_guarded_call@H@@QEAAH$$QEAV<lambda_e24bbb7b643b32fcea6fa61b31d4c984>@@AEAV<lambda_275893d493268fdec8709772e3fcec0e>@@$$QEAV<lambda_9d71df4d7cf3f480f8d633942495c3b0>@@@Z@4HA 000000014001c878 f   libucrt:onexit.obj
 0001:0001b895       ?fin$0@?0??__acrt_stdio_allocate_stream@@YA?AV__crt_stdio_stream@@XZ@4HA 000000014001c895 f   libucrt:stream.obj
 0001:0001b895       _fcloseall$fin$0           000000014001c895 f   libucrt:closeall.obj
 0001:0001b8ae       common_flush_all$fin$0     000000014001c8ae f   libucrt:fflush.obj
 0001:0001b8c8       common_flush_all$fin$1     000000014001c8c8 f   libucrt:fflush.obj
 0001:0001b8e1       ?fin$0@?0???$?RV<lambda_72d1df2b273a38828b1ce30cbf4cdab5>@@AEAV<lambda_876a65b173b8412d3a47c70a915b0cf4>@@V<lambda_41932305e351933ebe8f8be3ed8bb5dc>@@@?$__crt_seh_guarded_call@X@@QEAAX$$QEAV<lambda_72d1df2b273a38828b1ce30cbf4cdab5>@@AEAV<lambda_876a65b173b8412d3a47c70a915b0cf4>@@$$QEAV<lambda_41932305e351933ebe8f8be3ed8bb5dc>@@@Z@4HA 000000014001c8e1 f   libucrt:per_thread_data.obj
 0001:0001b8e1       ?fin$0@?0???$?RV<lambda_fb3a7dec4e47f37f22dae91bb15c9095>@@AEAV<lambda_698284760c8add0bfb0756c19673e34b>@@V<lambda_dfb8eca1e75fef3034a8fb18dd509707>@@@?$__crt_seh_guarded_call@X@@QEAAX$$QEAV<lambda_fb3a7dec4e47f37f22dae91bb15c9095>@@AEAV<lambda_698284760c8add0bfb0756c19673e34b>@@$$QEAV<lambda_dfb8eca1e75fef3034a8fb18dd509707>@@@Z@4HA 000000014001c8e1 f   libucrt:per_thread_data.obj
 0001:0001b8e1       ?fin$0@?0???$?RV<lambda_99476a1ad63dd22509b5d3e65b0ffc95>@@AEAV<lambda_ad1ced32f4ac17aa236e5ef05d6b3b7c>@@V<lambda_f7424dd8d45958661754dc4f2697e9c3>@@@?$__crt_seh_guarded_call@X@@QEAAX$$QEAV<lambda_99476a1ad63dd22509b5d3e65b0ffc95>@@AEAV<lambda_ad1ced32f4ac17aa236e5ef05d6b3b7c>@@$$QEAV<lambda_f7424dd8d45958661754dc4f2697e9c3>@@@Z@4HA 000000014001c8e1 f   libucrt:mbctype.obj
 0001:0001b8e1       ?fin$0@?0???$?RV<lambda_46352004c1216016012b18bd6f87e700>@@AEAV<lambda_3bd07e1a1191394380780325891bf33f>@@V<lambda_334532d3f185bcaa59b5be82d7d22bff>@@@?$__crt_seh_guarded_call@X@@QEAAX$$QEAV<lambda_46352004c1216016012b18bd6f87e700>@@AEAV<lambda_3bd07e1a1191394380780325891bf33f>@@$$QEAV<lambda_334532d3f185bcaa59b5be82d7d22bff>@@@Z@4HA 000000014001c8e1 f   libucrt:per_thread_data.obj
 0001:0001b8e1       ?fin$0@?0???$?RV<lambda_b8c45f8f788dd370798f47cfe8ac3a86>@@AEAV<lambda_4e60a939b0d047cfe11ddc22648dfba9>@@V<lambda_332c3edc96d0294ec56c57d38c1cdfd5>@@@?$__crt_seh_guarded_call@H@@QEAAH$$QEAV<lambda_b8c45f8f788dd370798f47cfe8ac3a86>@@AEAV<lambda_4e60a939b0d047cfe11ddc22648dfba9>@@$$QEAV<lambda_332c3edc96d0294ec56c57d38c1cdfd5>@@@Z@4HA 000000014001c8e1 f   libucrt:onexit.obj
 0001:0001b8e1       ?fin$0@?0???$?RV<lambda_5e887d1dcbef67a5eb4283622ba103bf>@@AEAV<lambda_4466841279450cc726390878d4a41900>@@V<lambda_341c25c0346d94847f1f3c463c57e077>@@@?$__crt_seh_guarded_call@X@@QEAAX$$QEAV<lambda_5e887d1dcbef67a5eb4283622ba103bf>@@AEAV<lambda_4466841279450cc726390878d4a41900>@@$$QEAV<lambda_341c25c0346d94847f1f3c463c57e077>@@@Z@4HA 000000014001c8e1 f   libucrt:per_thread_data.obj
 0001:0001b8e1       ?fin$0@?0???$?RV<lambda_c36588078e9f5dfd39652860aa6b3aaf>@@AEAV<lambda_ec61778202f4f5fc7e7711acc23c3bca>@@V<lambda_dc9d2797ccde5d239b4a0efae8ebd7db>@@@?$__crt_seh_guarded_call@P6AXH@Z@@QEAAP6AXH@Z$$QEAV<lambda_c36588078e9f5dfd39652860aa6b3aaf>@@AEAV<lambda_ec61778202f4f5fc7e7711acc23c3bca>@@$$QEAV<lambda_dc9d2797ccde5d239b4a0efae8ebd7db>@@@Z@4HA 000000014001c8e1 f   libucrt:signal.obj
 0001:0001b8fb       __acrt_update_thread_multibyte_data$fin$0 000000014001c8fb f   libucrt:mbctype.obj
 0001:0001b914       _alloc_osfhnd$fin$0        000000014001c914 f   libucrt:osfinfo.obj
 0001:0001b914       __acrt_lowio_ensure_fh_exists$fin$0 000000014001c914 f   libucrt:osfinfo.obj
 0001:0001b914       __acrt_initialize_lowio$fin$0 000000014001c914 f   libucrt:ioinit.obj
 0001:0001b92d       __acrt_uninitialize_locale$fin$0 000000014001c92d f   libucrt:wsetlocale.obj
 0001:0001b92d       __acrt_update_thread_locale_data$fin$0 000000014001c92d f   libucrt:locale_refcounting.obj
 0001:0001b946       _query_new_handler$fin$0   000000014001c946 f   libucrt:new_handler.obj
 0001:0001b95c       raise$fin$0                000000014001c95c f   libucrt:signal.obj
 0001:0001b980       ?fin$0@?0???$?RV<lambda_bfedae4ebbf01fab1bb6dcc6a9e276e0>@@AEAV<lambda_2fe9b910cf3cbf4a0ab98a02ba45b3ec>@@V<lambda_237c231691f317818eb88cc1d5d642d6>@@@?$__crt_seh_guarded_call@H@@QEAAH$$QEAV<lambda_bfedae4ebbf01fab1bb6dcc6a9e276e0>@@AEAV<lambda_2fe9b910cf3cbf4a0ab98a02ba45b3ec>@@$$QEAV<lambda_237c231691f317818eb88cc1d5d642d6>@@@Z@4HA 000000014001c980 f   libucrt:close.obj
 0001:0001b980       ?fin$0@?0???$?RV<lambda_b521505b218e5242e90febf6bfebc422>@@AEAV<lambda_6978c1fb23f02e42e1d9e99668cc68aa>@@V<lambda_314360699dd331753a4119843814e9a7>@@@?$__crt_seh_guarded_call@H@@QEAAH$$QEAV<lambda_b521505b218e5242e90febf6bfebc422>@@AEAV<lambda_6978c1fb23f02e42e1d9e99668cc68aa>@@$$QEAV<lambda_314360699dd331753a4119843814e9a7>@@@Z@4HA 000000014001c980 f   libucrt:commit.obj
 0001:0001b99a       _write$fin$0               000000014001c99a f   libucrt:write.obj
 0001:0001b99a       ?fin$0@?0???$common_lseek@_J@@YA_JH_JH@Z@4HA 000000014001c99a f   libucrt:lseek.obj
 0001:0001b99a       _read$fin$0                000000014001c99a f   libucrt:read.obj
 0001:0001b9b1       ?fin$0@?0???$common_sopen_dispatch@D@@YAHQEBDHHHQEAHH@Z@4HA 000000014001c9b1 f   libucrt:open.obj
 0001:0001ba04       common_control87$filt$0    000000014001ca04 f   libucrt:ieee.obj
 0001:0001ba04       _ctrlfp$filt$0             000000014001ca04 f   libucrt:fpctrl.obj
 0001:0001ba30       _IsNonwritableInCurrentImage$filt$0 000000014001ca30 f   LIBCMT:pesect.obj
 0002:00000250       ?pre_cpp_initializer@@3P6AXXZEA 000000014001d250     LIBCMT:exe_main.obj
 0002:00000268       ?pre_c_initializer@@3P6AHXZEA 000000014001d268     LIBCMT:exe_main.obj
 0002:00000270       ?post_pgo_initializer@@3P6AHXZEA 000000014001d270     LIBCMT:exe_main.obj
 0002:000002d0       GS_ExceptionPointers       000000014001d2d0     LIBCMT:gs_report.obj
 0002:000002e0       ?module_names@?A0x679b24ab@@3QBQEB_WB 000000014001d2e0     libvcruntime:winapi_downlevel.obj
 0002:000003b0       ?candidate_modules@?1??try_get_FlsAlloc@@YAP6AKP6AXPEAX@Z@ZXZ@4QBW4module_id@?A0x679b24ab@@B 000000014001d3b0     libvcruntime:winapi_downlevel.obj
 0002:000003c8       ?candidate_modules@?1??try_get_FlsFree@@YAP6AHK@ZXZ@4QBW4module_id@?A0x679b24ab@@B 000000014001d3c8     libvcruntime:winapi_downlevel.obj
 0002:000003e8       ?candidate_modules@?1??try_get_FlsSetValue@@YAP6AHKPEAX@ZXZ@4QBW4module_id@?A0x679b24ab@@B 000000014001d3e8     libvcruntime:winapi_downlevel.obj
 0002:00000400       ?candidate_modules@?1??try_get_InitializeCriticalSectionEx@@YAP6AHPEAU_RTL_CRITICAL_SECTION@@KK@ZXZ@4QBW4module_id@?A0x679b24ab@@B 000000014001d400     libvcruntime:winapi_downlevel.obj
 0002:00000430       ?tokenTable@@3QBQEBDB      000000014001d430     libvcruntime:undname.obj
 0002:000004a0       ?nameTable@@3QBQEBDB       000000014001d4a0     libvcruntime:undname.obj
 0002:00000728       ?rttiTable@@3QBQEBDB       000000014001d728     libvcruntime:undname.obj
 0002:00001b60       __acrt_initializers        000000014001eb60     libucrt:initialization.obj
 0002:00001c50       errtable                   000000014001ec50     libucrt:errno.obj
 0002:00001dc0       module_names               000000014001edc0     libucrt:winapi_thunks.obj
 0002:000022f0       ?candidate_modules@?1??try_get_AreFileApisANSI@@YAP6AHXZXZ@4QBW4module_id@?A0x63058377@@B 000000014001f2f0     libucrt:winapi_thunks.obj
 0002:00002308       ?candidate_modules@?1??try_get_CompareStringEx@@YAP6AHPEB_WK0H0HPEAU_nlsversioninfo@@PEAX_J@ZXZ@4QBW4module_id@?A0x63058377@@B 000000014001f308     libucrt:winapi_thunks.obj
 0002:00002320       ?candidate_modules@?1??try_get_FlsAlloc@@YAP6AKP6AXPEAX@Z@ZXZ@4QBW4module_id@?A0x63058377@@B 000000014001f320     libucrt:winapi_thunks.obj
 0002:00002328       ?candidate_modules@?1??try_get_FlsFree@@YAP6AHK@ZXZ@4QBW4module_id@?A0x63058377@@B 000000014001f328     libucrt:winapi_thunks.obj
 0002:00002330       ?candidate_modules@?1??try_get_FlsGetValue@@YAP6APEAXK@ZXZ@4QBW4module_id@?A0x63058377@@B 000000014001f330     libucrt:winapi_thunks.obj
 0002:00002338       ?candidate_modules@?1??try_get_FlsSetValue@@YAP6AHKPEAX@ZXZ@4QBW4module_id@?A0x63058377@@B 000000014001f338     libucrt:winapi_thunks.obj
 0002:00002340       ?candidate_modules@?1??try_get_GetCurrentPackageId@@YAP6AJPEAIPEAE@ZXZ@4QBW4module_id@?A0x63058377@@B 000000014001f340     libucrt:winapi_thunks.obj
 0002:00002360       ?candidate_modules@?1??try_get_InitializeCriticalSectionEx@@YAP6AHPEAU_RTL_CRITICAL_SECTION@@KK@ZXZ@4QBW4module_id@?A0x63058377@@B 000000014001f360     libucrt:winapi_thunks.obj
 0002:00002368       ?candidate_modules@?1??try_get_LCMapStringEx@@YAP6AHPEB_WK0HPEA_WHPEAU_nlsversioninfo@@PEAX_J@ZXZ@4QBW4module_id@?A0x63058377@@B 000000014001f368     libucrt:winapi_thunks.obj
 0002:00002380       ?candidate_modules@?1??try_get_LocaleNameToLCID@@YAP6AKPEB_WK@ZXZ@4QBW4module_id@?A0x63058377@@B 000000014001f380     libucrt:winapi_thunks.obj
 0002:000030a0       _mb_locale_names           00000001400200a0     libucrt:mbctype.obj
 0002:00003110       LcidToLocaleNameTable      0000000140020110     libucrt:lcidtoname_downlevel.obj
 0002:00004b70       LocaleNameToIndexTable     0000000140021b70     libucrt:lcidtoname_downlevel.obj
 0002:00006430       __real_ninf                0000000140023430     libucrt:log10.obj
 0002:00006440       __real_inf                 0000000140023440     libucrt:log10.obj
 0002:00006450       __real_neg_qnan            0000000140023450     libucrt:log10.obj
 0002:00006460       __real_qnanbit             0000000140023460     libucrt:log10.obj
 0002:00006470       __int_1023                 0000000140023470     libucrt:log10.obj
 0002:00006480       __mask_001                 0000000140023480     libucrt:log10.obj
 0002:00006490       __mask_mant                0000000140023490     libucrt:log10.obj
 0002:000064a0       __mask_mant_top8           00000001400234a0     libucrt:log10.obj
 0002:000064b0       __mask_mant9               00000001400234b0     libucrt:log10.obj
 0002:000064c0       __real_log10_e             00000001400234c0     libucrt:log10.obj
 0002:000064d0       __real_log10_e_lead        00000001400234d0     libucrt:log10.obj
 0002:000064e0       __real_log10_e_tail        00000001400234e0     libucrt:log10.obj
 0002:000064f0       __real_log10_2_lead        00000001400234f0     libucrt:log10.obj
 0002:00006500       __real_log10_2_tail        0000000140023500     libucrt:log10.obj
 0002:00006510       __real_two                 0000000140023510     libucrt:log10.obj
 0002:00006520       __real_one                 0000000140023520     libucrt:log10.obj
 0002:00006530       __real_half                0000000140023530     libucrt:log10.obj
 0002:00006540       __mask_100                 0000000140023540     libucrt:log10.obj
 0002:00006550       __real_1_over_512          0000000140023550     libucrt:log10.obj
 0002:00006560       __real_1_over_2            0000000140023560     libucrt:log10.obj
 0002:00006570       __real_1_over_3            0000000140023570     libucrt:log10.obj
 0002:00006580       __real_1_over_4            0000000140023580     libucrt:log10.obj
 0002:00006590       __real_1_over_5            0000000140023590     libucrt:log10.obj
 0002:000065a0       __real_1_over_6            00000001400235a0     libucrt:log10.obj
 0002:000065b0       __real_neg_1023            00000001400235b0     libucrt:log10.obj
 0002:000065c0       __mask_2045                00000001400235c0     libucrt:log10.obj
 0002:000065d0       __real_threshold           00000001400235d0     libucrt:log10.obj
 0002:000065e0       __real_near_one_lt         00000001400235e0     libucrt:log10.obj
 0002:000065f0       __real_near_one_gt         00000001400235f0     libucrt:log10.obj
 0002:00006600       __real_min_norm            0000000140023600     libucrt:log10.obj
 0002:00006610       __real_notsign             0000000140023610     libucrt:log10.obj
 0002:00006620       __real_ca1                 0000000140023620     libucrt:log10.obj
 0002:00006630       __real_ca2                 0000000140023630     libucrt:log10.obj
 0002:00006640       __real_ca3                 0000000140023640     libucrt:log10.obj
 0002:00006650       __real_ca4                 0000000140023650     libucrt:log10.obj
 0002:00006660       __mask_lower               0000000140023660     libucrt:log10.obj
 0002:00006670       __flag_x_zero              0000000140023670     libucrt:log10.obj
 0002:00006674       __flag_x_neg               0000000140023674     libucrt:log10.obj
 0002:00006678       __flag_x_nan               0000000140023678     libucrt:log10.obj
 0002:00006680       __real@433fffffffffffff    0000000140023680     libucrt:fpsr.obj
 0002:00006688       __real@c33fffffffffffff    0000000140023688     libucrt:fpsr.obj
 0002:00008000       __real_ninf                0000000140025000     libucrt:log.obj
 0002:00008010       __real_inf                 0000000140025010     libucrt:log.obj
 0002:00008020       __real_neg_qnan            0000000140025020     libucrt:log.obj
 0002:00008030       __real_qnanbit             0000000140025030     libucrt:log.obj
 0002:00008040       __real_min_norm            0000000140025040     libucrt:log.obj
 0002:00008050       __real_mant                0000000140025050     libucrt:log.obj
 0002:00008060       __mask_1023                0000000140025060     libucrt:log.obj
 0002:00008070       __mask_001                 0000000140025070     libucrt:log.obj
 0002:00008080       __mask_mant_all8           0000000140025080     libucrt:log.obj
 0002:00008090       __mask_mant9               0000000140025090     libucrt:log.obj
 0002:000080a0       __real_two                 00000001400250a0     libucrt:log.obj
 0002:000080b0       __real_one                 00000001400250b0     libucrt:log.obj
 0002:000080c0       __real_near_one_lt         00000001400250c0     libucrt:log.obj
 0002:000080d0       __real_near_one_gt         00000001400250d0     libucrt:log.obj
 0002:000080e0       __real_half                00000001400250e0     libucrt:log.obj
 0002:000080f0       __mask_100                 00000001400250f0     libucrt:log.obj
 0002:00008100       __real_1_over_512          0000000140025100     libucrt:log.obj
 0002:00008110       __real_1_over_2            0000000140025110     libucrt:log.obj
 0002:00008120       __real_1_over_3            0000000140025120     libucrt:log.obj
 0002:00008130       __real_1_over_4            0000000140025130     libucrt:log.obj
 0002:00008140       __real_1_over_5            0000000140025140     libucrt:log.obj
 0002:00008150       __real_1_over_6            0000000140025150     libucrt:log.obj
 0002:00008160       __mask_1023_f              0000000140025160     libucrt:log.obj
 0002:00008170       __mask_2045                0000000140025170     libucrt:log.obj
 0002:00008180       __real_threshold           0000000140025180     libucrt:log.obj
 0002:00008190       __real_notsign             0000000140025190     libucrt:log.obj
 0002:000081a0       __real_ca1                 00000001400251a0     libucrt:log.obj
 0002:000081b0       __real_ca2                 00000001400251b0     libucrt:log.obj
 0002:000081c0       __real_ca3                 00000001400251c0     libucrt:log.obj
 0002:000081d0       __real_ca4                 00000001400251d0     libucrt:log.obj
 0002:000081e0       __real_log2_lead           00000001400251e0     libucrt:log.obj
 0002:000081f0       __real_log2_tail           00000001400251f0     libucrt:log.obj
 0002:00008200       __flag_x_zero              0000000140025200     libucrt:log.obj
 0002:00008204       __flag_x_neg               0000000140025204     libucrt:log.obj
 0002:00008208       __flag_x_nan               0000000140025208     libucrt:log.obj
 0002:000096c0       $unwind$fscanf             00000001400266c0     main.obj
 0002:000096c0       $unwind$fprintf            00000001400266c0     prime_sieve.obj
 0002:000096c0       $unwind$sprintf            00000001400266c0     prime_sieve.obj
 0002:000096c0       $unwind$sscanf             00000001400266c0     prime_sieve.obj
 0002:000096cc       $unwind$generate_args      00000001400266cc     prime_sieve.obj
 0002:000096e4       $chain$0$generate_args     00000001400266e4     prime_sieve.obj
 0002:000096f8       $chain$1$generate_args     00000001400266f8     prime_sieve.obj
 0002:00009708       $chain$2$generate_args     0000000140026708     prime_sieve.obj
 0002:0000971c       $chain$3$generate_args     000000014002671c     prime_sieve.obj
 0002:0000972c       $unwind$main               000000014002672c     main.obj
 0002:00009740       $xdatasym                  0000000140026740     LIBCMT:_amdsecgs_.obj
 0002:00009744       $unwind$?__scrt_common_main_seh@@YAHXZ 0000000140026744     LIBCMT:exe_main.obj
 0002:0000976c       $unwind$_ctrlfp$filt$0     000000014002676c     libucrt:fpctrl.obj
 0002:0000976c       $unwind$?fin$0@?0???$common_fsopen@D@@YAPEAU_iobuf@@QEBD0H@Z@4HA 000000014002676c     libucrt:fopen.obj
 0002:0000976c       $unwind$?fin$0@?0???$?RV<lambda_5e887d1dcbef67a5eb4283622ba103bf>@@AEAV<lambda_4466841279450cc726390878d4a41900>@@V<lambda_341c25c0346d94847f1f3c463c57e077>@@@?$__crt_seh_guarded_call@X@@QEAAX$$QEAV<lambda_5e887d1dcbef67a5eb4283622ba103bf>@@AEAV<lambda_4466841279450cc726390878d4a41900>@@$$QEAV<lambda_341c25c0346d94847f1f3c463c57e077>@@@Z@4HA 000000014002676c     libucrt:per_thread_data.obj
 0002:0000976c       $unwind$?fin$0@?0???$?RV<lambda_fb3a7dec4e47f37f22dae91bb15c9095>@@AEAV<lambda_698284760c8add0bfb0756c19673e34b>@@V<lambda_dfb8eca1e75fef3034a8fb18dd509707>@@@?$__crt_seh_guarded_call@X@@QEAAX$$QEAV<lambda_fb3a7dec4e47f37f22dae91bb15c9095>@@AEAV<lambda_698284760c8add0bfb0756c19673e34b>@@$$QEAV<lambda_dfb8eca1e75fef3034a8fb18dd509707>@@@Z@4HA 000000014002676c     libucrt:per_thread_data.obj
 0002:0000976c       $unwind$__acrt_update_thread_multibyte_data$fin$0 000000014002676c     libucrt:mbctype.obj
 0002:0000976c       $unwind$?fin$0@?0???$?RV<lambda_99476a1ad63dd22509b5d3e65b0ffc95>@@AEAV<lambda_ad1ced32f4ac17aa236e5ef05d6b3b7c>@@V<lambda_f7424dd8d45958661754dc4f2697e9c3>@@@?$__crt_seh_guarded_call@X@@QEAAX$$QEAV<lambda_99476a1ad63dd22509b5d3e65b0ffc95>@@AEAV<lambda_ad1ced32f4ac17aa236e5ef05d6b3b7c>@@$$QEAV<lambda_f7424dd8d45958661754dc4f2697e9c3>@@@Z@4HA 000000014002676c     libucrt:mbctype.obj
 0002:0000976c       $unwind$common_flush_all$fin$1 000000014002676c     libucrt:fflush.obj
 0002:0000976c       $unwind$?fin$0@?0???$?RV<lambda_46352004c1216016012b18bd6f87e700>@@AEAV<lambda_3bd07e1a1191394380780325891bf33f>@@V<lambda_334532d3f185bcaa59b5be82d7d22bff>@@@?$__crt_seh_guarded_call@X@@QEAAX$$QEAV<lambda_46352004c1216016012b18bd6f87e700>@@AEAV<lambda_3bd07e1a1191394380780325891bf33f>@@$$QEAV<lambda_334532d3f185bcaa59b5be82d7d22bff>@@@Z@4HA 000000014002676c     libucrt:per_thread_data.obj
 0002:0000976c       $unwind$_fcloseall$fin$0   000000014002676c     libucrt:closeall.obj
 0002:0000976c       $unwind$_write$fin$0       000000014002676c     libucrt:write.obj
 0002:0000976c       $unwind$?fin$0@?0???$?RV<lambda_72d1df2b273a38828b1ce30cbf4cdab5>@@AEAV<lambda_876a65b173b8412d3a47c70a915b0cf4>@@V<lambda_41932305e351933ebe8f8be3ed8bb5dc>@@@?$__crt_seh_guarded_call@X@@QEAAX$$QEAV<lambda_72d1df2b273a38828b1ce30cbf4cdab5>@@AEAV<lambda_876a65b173b8412d3a47c70a915b0cf4>@@$$QEAV<lambda_41932305e351933ebe8f8be3ed8bb5dc>@@@Z@4HA 000000014002676c     libucrt:per_thread_data.obj
 0002:0000976c       $unwind$?fin$0@?0???$?RV<lambda_c36588078e9f5dfd39652860aa6b3aaf>@@AEAV<lambda_ec61778202f4f5fc7e7711acc23c3bca>@@V<lambda_dc9d2797ccde5d239b4a0efae8ebd7db>@@@?$__crt_seh_guarded_call@P6AXH@Z@@QEAAP6AXH@Z$$QEAV<lambda_c36588078e9f5dfd39652860aa6b3aaf>@@AEAV<lambda_ec61778202f4f5fc7e7711acc23c3bca>@@$$QEAV<lambda_dc9d2797ccde5d239b4a0efae8ebd7db>@@@Z@4HA 000000014002676c     libucrt:signal.obj
 0002:0000976c       $unwind$common_flush_all$fin$0 000000014002676c     libucrt:fflush.obj
 0002:0000976c       $unwind$?filt$0@?0??common_exit@@YAXHW4_crt_exit_cleanup_mode@@W4_crt_exit_return_mode@@@Z@4HA 000000014002676c     libucrt:exit.obj
 0002:0000976c       $unwind$_query_new_handler$fin$0 000000014002676c     libucrt:new_handler.obj
 0002:0000976c       $unwind$?fin$1@?0??common_exit@@YAXHW4_crt_exit_cleanup_mode@@W4_crt_exit_return_mode@@@Z@4HA 000000014002676c     libucrt:exit.obj
 0002:0000976c       $unwind$?fin$0@?0???$?RV<lambda_e24bbb7b643b32fcea6fa61b31d4c984>@@AEAV<lambda_275893d493268fdec8709772e3fcec0e>@@V<lambda_9d71df4d7cf3f480f8d633942495c3b0>@@@?$__crt_seh_guarded_call@H@@QEAAH$$QEAV<lambda_e24bbb7b643b32fcea6fa61b31d4c984>@@AEAV<lambda_275893d493268fdec8709772e3fcec0e>@@$$QEAV<lambda_9d71df4d7cf3f480f8d633942495c3b0>@@@Z@4HA 000000014002676c     libucrt:onexit.obj
 0002:0000976c       $unwind$?filt$0@?0??__scrt_common_main_seh@@YAHXZ@4HA 000000014002676c     LIBCMT:exe_main.obj
 0002:0000976c       $unwind$_read$fin$0        000000014002676c     libucrt:read.obj
 0002:0000976c       $unwind$_alloc_osfhnd$fin$0 000000014002676c     libucrt:osfinfo.obj
 0002:0000976c       $unwind$?fin$0@?0???$?RV<lambda_c01e8233c1997d6cc4b8f1fd672e07e5>@@AEAV<lambda_3a6204444a8bad05601fdaf7664f6f17>@@V<lambda_b6ae1896c9cebd71befa8310523e5efb>@@@?$__crt_seh_guarded_call@H@@QEAAH$$QEAV<lambda_c01e8233c1997d6cc4b8f1fd672e07e5>@@AEAV<lambda_3a6204444a8bad05601fdaf7664f6f17>@@$$QEAV<lambda_b6ae1896c9cebd71befa8310523e5efb>@@@Z@4HA 000000014002676c     libucrt:input.obj
 0002:0000976c       $unwind$_IsNonwritableInCurrentImage$filt$0 000000014002676c     LIBCMT:pesect.obj
 0002:0000976c       $unwind$__acrt_lowio_ensure_fh_exists$fin$0 000000014002676c     libucrt:osfinfo.obj
 0002:0000976c       $unwind$?fin$0@?0???$?RV<lambda_aa279a7bcb127014629d5b1d62c7325d>@@AEAV<lambda_0a64b6a4deda75c01876f29c44fc5eb3>@@V<lambda_3323e69fbefe9d1a11713e670d47cdfa>@@@?$__crt_seh_guarded_call@H@@QEAAH$$QEAV<lambda_aa279a7bcb127014629d5b1d62c7325d>@@AEAV<lambda_0a64b6a4deda75c01876f29c44fc5eb3>@@$$QEAV<lambda_3323e69fbefe9d1a11713e670d47cdfa>@@@Z@4HA 000000014002676c     libucrt:output.obj
 0002:0000976c       $unwind$__acrt_update_thread_locale_data$fin$0 000000014002676c     libucrt:locale_refcounting.obj
 0002:0000976c       $unwind$?fin$0@?0???$common_lseek@_J@@YA_JH_JH@Z@4HA 000000014002676c     libucrt:lseek.obj
 0002:0000976c       $unwind$raise$fin$0        000000014002676c     libucrt:signal.obj
 0002:0000976c       $unwind$?fin$0@?0???$?RV<lambda_b8c45f8f788dd370798f47cfe8ac3a86>@@AEAV<lambda_4e60a939b0d047cfe11ddc22648dfba9>@@V<lambda_332c3edc96d0294ec56c57d38c1cdfd5>@@@?$__crt_seh_guarded_call@H@@QEAAH$$QEAV<lambda_b8c45f8f788dd370798f47cfe8ac3a86>@@AEAV<lambda_4e60a939b0d047cfe11ddc22648dfba9>@@$$QEAV<lambda_332c3edc96d0294ec56c57d38c1cdfd5>@@@Z@4HA 000000014002676c     libucrt:onexit.obj
 0002:0000976c       $unwind$__acrt_initialize_lowio$fin$0 000000014002676c     libucrt:ioinit.obj
 0002:0000976c       $unwind$?fin$0@?0??__acrt_stdio_allocate_stream@@YA?AV__crt_stdio_stream@@XZ@4HA 000000014002676c     libucrt:stream.obj
 0002:0000976c       $unwind$?fin$0@?0???$?RV<lambda_b521505b218e5242e90febf6bfebc422>@@AEAV<lambda_6978c1fb23f02e42e1d9e99668cc68aa>@@V<lambda_314360699dd331753a4119843814e9a7>@@@?$__crt_seh_guarded_call@H@@QEAAH$$QEAV<lambda_b521505b218e5242e90febf6bfebc422>@@AEAV<lambda_6978c1fb23f02e42e1d9e99668cc68aa>@@$$QEAV<lambda_314360699dd331753a4119843814e9a7>@@@Z@4HA 000000014002676c     libucrt:commit.obj
 0002:0000976c       $unwind$common_control87$filt$0 000000014002676c     libucrt:ieee.obj
 0002:0000976c       $unwind$__acrt_uninitialize_locale$fin$0 000000014002676c     libucrt:wsetlocale.obj
 0002:0000976c       $unwind$fclose$fin$0       000000014002676c     libucrt:fclose.obj
 0002:0000976c       $unwind$?fin$0@?0???$?RV<lambda_bfedae4ebbf01fab1bb6dcc6a9e276e0>@@AEAV<lambda_2fe9b910cf3cbf4a0ab98a02ba45b3ec>@@V<lambda_237c231691f317818eb88cc1d5d642d6>@@@?$__crt_seh_guarded_call@H@@QEAAH$$QEAV<lambda_bfedae4ebbf01fab1bb6dcc6a9e276e0>@@AEAV<lambda_2fe9b910cf3cbf4a0ab98a02ba45b3ec>@@$$QEAV<lambda_237c231691f317818eb88cc1d5d642d6>@@@Z@4HA 000000014002676c     libucrt:close.obj
 0002:00009774       $unwind$__report_securityfailure 0000000140026774     LIBCMT:gs_report.obj
 0002:0000977c       $unwind$capture_current_context 000000014002677c     LIBCMT:gs_report.obj
 0002:00009788       $unwind$capture_previous_context 0000000140026788     LIBCMT:gs_report.obj
 0002:00009794       $unwind$__scrt_is_nonwritable_in_current_image 0000000140026794     LIBCMT:utility.obj
 0002:000097b4       $unwind$__scrt_is_nonwritable_in_current_image$filt$0 00000001400267b4     LIBCMT:utility.obj
 0002:000097bc       $unwind$__scrt_initialize_onexit_tables 00000001400267bc     LIBCMT:utility.obj
 0002:000097c8       $unwind$__security_init_cookie 00000001400267c8     LIBCMT:gs_support.obj
 0002:000097d4       $unwind$__scrt_fastfail    00000001400267d4     LIBCMT:utility_desktop.obj
 0002:000097e4       $unwind$__isa_available_init 00000001400267e4     LIBCMT:_cpu_disp_.obj
 0002:000097f8       $xdatasym                  00000001400267f8     LIBCMT:_guard_dispatch_.obj
 0002:000097fc       $unwind$__C_specific_handler 00000001400267fc     libvcruntime:_chandler_.obj
 0002:00009818       $xdatasym                  0000000140026818     libvcruntime:memset.obj
 0002:00009820       $xdatasym                  0000000140026820     libvcruntime:_jmpuwind_.obj
 0002:00009834       $unwind$__stdio_common_vfscanf 0000000140026834     libucrt:input.obj
 0002:00009834       $unwind$__stdio_common_vfprintf 0000000140026834     libucrt:output.obj
 0002:0000983c       $unwind$__stdio_common_vsprintf 000000014002683c     libucrt:output.obj
 0002:00009860       $unwind$?process@?$output_processor@DV?$stream_output_adapter@D@__crt_stdio_output@@V?$standard_base@DV?$stream_output_adapter@D@__crt_stdio_output@@@2@@__crt_stdio_output@@QEAAHXZ 0000000140026860     libucrt:output.obj
 0002:00009860       $unwind$?process@?$output_processor@DV?$string_output_adapter@D@__crt_stdio_output@@V?$standard_base@DV?$string_output_adapter@D@__crt_stdio_output@@@2@@__crt_stdio_output@@QEAAHXZ 0000000140026860     libucrt:output.obj
 0002:00009870       $unwind$??R<lambda_0a64b6a4deda75c01876f29c44fc5eb3>@@QEBAHXZ 0000000140026870     libucrt:output.obj
 0002:0000988c       $unwind$?parse_int_from_format_string@?$output_processor@DV?$string_output_adapter@D@__crt_stdio_output@@V?$standard_base@DV?$string_output_adapter@D@__crt_stdio_output@@@2@@__crt_stdio_output@@AEAA_NQEAH@Z 000000014002688c     libucrt:output.obj
 0002:0000988c       $unwind$?parse_int_from_format_string@?$output_processor@DV?$stream_output_adapter@D@__crt_stdio_output@@V?$standard_base@DV?$stream_output_adapter@D@__crt_stdio_output@@@2@@__crt_stdio_output@@AEAA_NQEAH@Z 000000014002688c     libucrt:output.obj
 0002:000098a0       $unwind$?state_case_type@?$output_processor@DV?$string_output_adapter@D@__crt_stdio_output@@V?$standard_base@DV?$string_output_adapter@D@__crt_stdio_output@@@2@@__crt_stdio_output@@AEAA_NXZ 00000001400268a0     libucrt:output.obj
 0002:000098a0       $unwind$?configure_text_mode@@YAHHUfile_options@?A0x656cf9f4@@HAEAW4__crt_lowio_text_mode@@@Z 00000001400268a0     libucrt:open.obj
 0002:000098a0       $unwind$?state_case_type@?$output_processor@DV?$stream_output_adapter@D@__crt_stdio_output@@V?$standard_base@DV?$stream_output_adapter@D@__crt_stdio_output@@@2@@__crt_stdio_output@@AEAA_NXZ 00000001400268a0     libucrt:output.obj
 0002:000098b8       $unwind$?type_case_a@?$output_processor@DV?$string_output_adapter@D@__crt_stdio_output@@V?$standard_base@DV?$string_output_adapter@D@__crt_stdio_output@@@2@@__crt_stdio_output@@AEAA_NXZ 00000001400268b8     libucrt:output.obj
 0002:000098b8       $unwind$?type_case_a@?$output_processor@DV?$stream_output_adapter@D@__crt_stdio_output@@V?$standard_base@DV?$stream_output_adapter@D@__crt_stdio_output@@@2@@__crt_stdio_output@@AEAA_NXZ 00000001400268b8     libucrt:output.obj
 0002:000098c4       $unwind$?write_stored_string_tchar@?$output_processor@DV?$string_output_adapter@D@__crt_stdio_output@@V?$standard_base@DV?$string_output_adapter@D@__crt_stdio_output@@@2@@__crt_stdio_output@@AEAA_ND@Z 00000001400268c4     libucrt:output.obj
 0002:000098c4       $unwind$?write_stored_string_tchar@?$output_processor@DV?$stream_output_adapter@D@__crt_stdio_output@@V?$standard_base@DV?$stream_output_adapter@D@__crt_stdio_output@@@2@@__crt_stdio_output@@AEAA_ND@Z 00000001400268c4     libucrt:output.obj
 0002:000098dc       $unwind$??$write_multiple_characters@V?$stream_output_adapter@D@__crt_stdio_output@@D@__crt_stdio_output@@YAXAEBV?$stream_output_adapter@D@0@DHQEAH@Z 00000001400268dc     libucrt:output.obj
 0002:000098f4       $unwind$??$parse_floating_point_possible_nan_is_ind@DV?$input_adapter_character_source@V?$string_input_adapter@D@__crt_stdio_input@@@__crt_strtox@@@__crt_strtox@@YA_NAEADAEAV?$input_adapter_character_source@V?$string_input_adapter@D@__crt_stdio_input@@@0@@Z 00000001400268f4     libucrt:input.obj
 0002:000098f4       $unwind$??$write_multiple_characters@V?$string_output_adapter@D@__crt_stdio_output@@D@__crt_stdio_output@@YAXAEBV?$string_output_adapter@D@0@DHQEAH@Z 00000001400268f4     libucrt:output.obj
 0002:000098f4       $unwind$??$parse_floating_point_possible_nan_is_snan@DV?$input_adapter_character_source@V?$string_input_adapter@D@__crt_stdio_input@@@__crt_strtox@@@__crt_strtox@@YA_NAEADAEAV?$input_adapter_character_source@V?$string_input_adapter@D@__crt_stdio_input@@@0@@Z 00000001400268f4     libucrt:input.obj
 0002:000098f4       $unwind$??$type_case_integer_parse_into_buffer@_K@?$output_processor@DV?$stream_output_adapter@D@__crt_stdio_output@@V?$standard_base@DV?$stream_output_adapter@D@__crt_stdio_output@@@2@@__crt_stdio_output@@AEAAX_KI_N@Z 00000001400268f4     libucrt:output.obj
 0002:000098f4       $unwind$??$type_case_integer_parse_into_buffer@I@?$output_processor@DV?$stream_output_adapter@D@__crt_stdio_output@@V?$standard_base@DV?$stream_output_adapter@D@__crt_stdio_output@@@2@@__crt_stdio_output@@AEAAXII_N@Z 00000001400268f4     libucrt:output.obj
 0002:000098f4       $unwind$??$type_case_integer_parse_into_buffer@_K@?$output_processor@DV?$string_output_adapter@D@__crt_stdio_output@@V?$standard_base@DV?$string_output_adapter@D@__crt_stdio_output@@@2@@__crt_stdio_output@@AEAAX_KI_N@Z 00000001400268f4     libucrt:output.obj
 0002:000098f4       $unwind$??$type_case_integer_parse_into_buffer@I@?$output_processor@DV?$string_output_adapter@D@__crt_stdio_output@@V?$standard_base@DV?$string_output_adapter@D@__crt_stdio_output@@@2@@__crt_stdio_output@@AEAAXII_N@Z 00000001400268f4     libucrt:output.obj
 0002:000098fc       $unwind$??$?RV<lambda_aa279a7bcb127014629d5b1d62c7325d>@@AEAV<lambda_0a64b6a4deda75c01876f29c44fc5eb3>@@V<lambda_3323e69fbefe9d1a11713e670d47cdfa>@@@?$__crt_seh_guarded_call@H@@QEAAH$$QEAV<lambda_aa279a7bcb127014629d5b1d62c7325d>@@AEAV<lambda_0a64b6a4deda75c01876f29c44fc5eb3>@@$$QEAV<lambda_3323e69fbefe9d1a11713e670d47cdfa>@@@Z 00000001400268fc     libucrt:output.obj
 0002:00009920       $unwind$__stdio_common_vsscanf 0000000140026920     libucrt:input.obj
 0002:00009944       $unwind$?divide@__crt_strtox@@YA_KAEAUbig_integer@1@AEBU21@@Z 0000000140026944     libucrt:input.obj
 0002:00009964       $chain$5$?divide@__crt_strtox@@YA_KAEAUbig_integer@1@AEBU21@@Z 0000000140026964     libucrt:input.obj
 0002:00009978       $chain$6$?divide@__crt_strtox@@YA_KAEAUbig_integer@1@AEBU21@@Z 0000000140026978     libucrt:input.obj
 0002:00009988       $unwind$?assemble_floating_point_value_from_big_integer@__crt_strtox@@YA?AW4SLD_STATUS@@AEBUbig_integer@1@I_N1AEBVfloating_point_value@1@@Z 0000000140026988     libucrt:input.obj
 0002:000099a4       $unwind$?convert_decimal_string_to_floating_type_common@__crt_strtox@@YA?AW4SLD_STATUS@@AEBUfloating_point_string@1@AEBVfloating_point_value@1@@Z 00000001400269a4     libucrt:input.obj
 0002:000099c8       $unwind$??$__acrt_stdio_parse_mode@D@@YA?AU__acrt_stdio_stream_mode@@QEBD@Z 00000001400269c8     libucrt:openfile.obj
 0002:000099c8       $unwind$?convert_hexadecimal_string_to_floating_type_common@__crt_strtox@@YA?AW4SLD_STATUS@@AEBUfloating_point_string@1@AEBVfloating_point_value@1@@Z 00000001400269c8     libucrt:input.obj
 0002:000099d4       $unwind$?write_character@?$input_processor@DV?$string_input_adapter@D@__crt_stdio_input@@@__crt_stdio_input@@AEAA_NQEFA_W_KAEAPEFA_WAEA_KD@Z 00000001400269d4     libucrt:input.obj
 0002:000099d4       $unwind$?write_character@?$input_processor@DV?$stream_input_adapter@D@__crt_stdio_input@@@__crt_stdio_input@@AEAA_NQEFA_W_KAEAPEFA_WAEA_KD@Z 00000001400269d4     libucrt:input.obj
 0002:000099e4       $unwind$?type_case_s@?$output_processor@DV?$string_output_adapter@D@__crt_stdio_output@@V?$standard_base@DV?$string_output_adapter@D@__crt_stdio_output@@@2@@__crt_stdio_output@@AEAA_NXZ 00000001400269e4     libucrt:output.obj
 0002:000099e4       $unwind$??R<lambda_ad1ced32f4ac17aa236e5ef05d6b3b7c>@@QEBAXXZ 00000001400269e4     libucrt:mbctype.obj
 0002:000099e4       $unwind$?type_case_Z@?$output_processor@DV?$string_output_adapter@D@__crt_stdio_output@@V?$standard_base@DV?$string_output_adapter@D@__crt_stdio_output@@@2@@__crt_stdio_output@@AEAA_NXZ 00000001400269e4     libucrt:output.obj
 0002:000099e4       $unwind$?process@?$input_processor@DV?$stream_input_adapter@D@__crt_stdio_input@@@__crt_stdio_input@@QEAAHXZ 00000001400269e4     libucrt:input.obj
 0002:000099e4       $unwind$?type_case_Z@?$output_processor@DV?$stream_output_adapter@D@__crt_stdio_output@@V?$standard_base@DV?$stream_output_adapter@D@__crt_stdio_output@@@2@@__crt_stdio_output@@AEAA_NXZ 00000001400269e4     libucrt:output.obj
 0002:000099e4       $unwind$?free_crt_array_internal@@YAXQEAPEBX_K@Z 00000001400269e4     libucrt:inittime.obj
 0002:000099e4       $unwind$?type_case_s@?$output_processor@DV?$stream_output_adapter@D@__crt_stdio_output@@V?$standard_base@DV?$stream_output_adapter@D@__crt_stdio_output@@@2@@__crt_stdio_output@@AEAA_NXZ 00000001400269e4     libucrt:output.obj
 0002:000099e4       $unwind$_RTC_Initialize    00000001400269e4     LIBCMT:_initsect_.obj
 0002:000099e4       $unwind$??$common_lseek_nolock@_J@@YA_JH_JH@Z 00000001400269e4     libucrt:lseek.obj
 0002:000099e4       $unwind$?process_string_specifier@?$input_processor@DV?$stream_input_adapter@D@__crt_stdio_input@@@__crt_stdio_input@@AEAA_NW4conversion_mode@2@@Z 00000001400269e4     libucrt:input.obj
 0002:000099e4       $unwind$__acrt_stdio_flush_nolock 00000001400269e4     libucrt:fflush.obj
 0002:000099e4       $unwind$__acrt_execute_uninitializers 00000001400269e4     libucrt:shared_initialization.obj
 0002:000099e4       $unwind$_initterm_e        00000001400269e4     libucrt:initterm.obj
 0002:000099e4       $unwind$__acrt_FlsSetValue 00000001400269e4     libucrt:winapi_thunks.obj
 0002:000099e4       $unwind$__acrt_LocaleNameToLCID 00000001400269e4     libucrt:winapi_thunks.obj
 0002:000099e4       $unwind$?type_case_n@?$output_processor@DV?$stream_output_adapter@D@__crt_stdio_output@@V?$standard_base@DV?$stream_output_adapter@D@__crt_stdio_output@@@2@@__crt_stdio_output@@AEAA_NXZ 00000001400269e4     libucrt:output.obj
 0002:000099e4       $unwind$?type_case_n@?$output_processor@DV?$string_output_adapter@D@__crt_stdio_output@@V?$standard_base@DV?$string_output_adapter@D@__crt_stdio_output@@@2@@__crt_stdio_output@@AEAA_NXZ 00000001400269e4     libucrt:output.obj
 0002:000099e4       $unwind$memcpy_s           00000001400269e4     libucrt:input.obj
 0002:000099e4       $unwind$?advance@?$format_string_parser@D@__crt_stdio_input@@QEAA_NXZ 00000001400269e4     libucrt:input.obj
 0002:000099e4       $unwind$?scan_scanset_range@?$format_string_parser@D@__crt_stdio_input@@AEAA_NXZ 00000001400269e4     libucrt:input.obj
 0002:000099e4       $unwind$?process@?$input_processor@DV?$string_input_adapter@D@__crt_stdio_input@@@__crt_stdio_input@@QEAAHXZ 00000001400269e4     libucrt:input.obj
 0002:000099e4       $unwind$_exception_enabled 00000001400269e4     libucrt:libm_error.obj
 0002:000099e4       $unwind$__acrt_stdio_flush_and_write_narrow_nolock 00000001400269e4     libucrt:_flsbuf.obj
 0002:000099e4       $unwind$memcpy_s           00000001400269e4     libucrt:cfout.obj
 0002:000099e4       $unwind$_RTC_Terminate     00000001400269e4     LIBCMT:_initsect_.obj
 0002:000099e4       $unwind$?process_string_specifier@?$input_processor@DV?$string_input_adapter@D@__crt_stdio_input@@@__crt_stdio_input@@AEAA_NW4conversion_mode@2@@Z 00000001400269e4     libucrt:input.obj
 0002:000099e4       $unwind$__vcrt_FlsSetValue 00000001400269e4     libvcruntime:winapi_downlevel.obj
 0002:000099e4       $unwind$__acrt_getptd_noexit 00000001400269e4     libucrt:per_thread_data.obj
 0002:000099f4       $unwind$??R<lambda_3a6204444a8bad05601fdaf7664f6f17>@@QEBAHXZ 00000001400269f4     libucrt:input.obj
 0002:00009a14       $unwind$?process_integer_specifier@?$input_processor@DV?$stream_input_adapter@D@__crt_stdio_input@@@__crt_stdio_input@@AEAA_NI_N@Z 0000000140026a14     libucrt:input.obj
 0002:00009a14       $unwind$?process_integer_specifier@?$input_processor@DV?$string_input_adapter@D@__crt_stdio_input@@@__crt_stdio_input@@AEAA_NI_N@Z 0000000140026a14     libucrt:input.obj
 0002:00009a28       $unwind$??$process_string_specifier_tchar@_W@?$input_processor@DV?$stream_input_adapter@D@__crt_stdio_input@@@__crt_stdio_input@@AEAA_NW4conversion_mode@1@_W@Z 0000000140026a28     libucrt:input.obj
 0002:00009a40       $unwind$??$parse_integer@_KV?$input_adapter_character_source@V?$stream_input_adapter@D@__crt_stdio_input@@@__crt_strtox@@@__crt_strtox@@YA_KQEAU__crt_locale_pointers@@V?$input_adapter_character_source@V?$stream_input_adapter@D@__crt_stdio_input@@@0@H_N@Z 0000000140026a40     libucrt:input.obj
 0002:00009a5c       $unwind$??$process_floating_point_specifier_t@M@?$input_processor@DV?$stream_input_adapter@D@__crt_stdio_input@@@__crt_stdio_input@@AEAA_NXZ 0000000140026a5c     libucrt:input.obj
 0002:00009a5c       $unwind$??$process_floating_point_specifier_t@N@?$input_processor@DV?$stream_input_adapter@D@__crt_stdio_input@@@__crt_stdio_input@@AEAA_NXZ 0000000140026a5c     libucrt:input.obj
 0002:00009a5c       $unwind$??$process_floating_point_specifier_t@M@?$input_processor@DV?$string_input_adapter@D@__crt_stdio_input@@@__crt_stdio_input@@AEAA_NXZ 0000000140026a5c     libucrt:input.obj
 0002:00009a5c       $unwind$??$process_floating_point_specifier_t@N@?$input_processor@DV?$string_input_adapter@D@__crt_stdio_input@@@__crt_stdio_input@@AEAA_NXZ 0000000140026a5c     libucrt:input.obj
 0002:00009a68       $unwind$??$process_string_specifier_tchar@_W@?$input_processor@DV?$string_input_adapter@D@__crt_stdio_input@@@__crt_stdio_input@@AEAA_NW4conversion_mode@1@_W@Z 0000000140026a68     libucrt:input.obj
 0002:00009a80       $unwind$??$parse_integer@KV?$c_string_character_source@D@__crt_strtox@@@__crt_strtox@@YAKQEAU__crt_locale_pointers@@V?$c_string_character_source@D@0@H_N@Z 0000000140026a80     libucrt:atox.obj
 0002:00009a80       $unwind$??$parse_integer@_KV?$c_string_character_source@D@__crt_strtox@@@__crt_strtox@@YA_KQEAU__crt_locale_pointers@@V?$c_string_character_source@D@0@H_N@Z 0000000140026a80     libucrt:atox.obj
 0002:00009a80       $unwind$??$parse_integer@_KV?$input_adapter_character_source@V?$string_input_adapter@D@__crt_stdio_input@@@__crt_strtox@@@__crt_strtox@@YA_KQEAU__crt_locale_pointers@@V?$input_adapter_character_source@V?$string_input_adapter@D@__crt_stdio_input@@@0@H_N@Z 0000000140026a80     libucrt:input.obj
 0002:00009a9c       $unwind$??$?RV<lambda_c01e8233c1997d6cc4b8f1fd672e07e5>@@AEAV<lambda_3a6204444a8bad05601fdaf7664f6f17>@@V<lambda_b6ae1896c9cebd71befa8310523e5efb>@@@?$__crt_seh_guarded_call@H@@QEAAH$$QEAV<lambda_c01e8233c1997d6cc4b8f1fd672e07e5>@@AEAV<lambda_3a6204444a8bad05601fdaf7664f6f17>@@$$QEAV<lambda_b6ae1896c9cebd71befa8310523e5efb>@@@Z 0000000140026a9c     libucrt:input.obj
 0002:00009ac0       $unwind$??$parse_floating_point@V?$input_adapter_character_source@V?$stream_input_adapter@D@__crt_stdio_input@@@__crt_strtox@@N@__crt_strtox@@YA?AW4SLD_STATUS@@QEAU__crt_locale_pointers@@V?$input_adapter_character_source@V?$stream_input_adapter@D@__crt_stdio_input@@@0@QEAN@Z 0000000140026ac0     libucrt:input.obj
 0002:00009ac0       $unwind$??$parse_floating_point@V?$input_adapter_character_source@V?$string_input_adapter@D@__crt_stdio_input@@@__crt_strtox@@M@__crt_strtox@@YA?AW4SLD_STATUS@@QEAU__crt_locale_pointers@@V?$input_adapter_character_source@V?$string_input_adapter@D@__crt_stdio_input@@@0@QEAM@Z 0000000140026ac0     libucrt:input.obj
 0002:00009ac0       $unwind$??$parse_floating_point@V?$input_adapter_character_source@V?$string_input_adapter@D@__crt_stdio_input@@@__crt_strtox@@N@__crt_strtox@@YA?AW4SLD_STATUS@@QEAU__crt_locale_pointers@@V?$input_adapter_character_source@V?$string_input_adapter@D@__crt_stdio_input@@@0@QEAN@Z 0000000140026ac0     libucrt:input.obj
 0002:00009ac0       $unwind$??$parse_floating_point@V?$input_adapter_character_source@V?$stream_input_adapter@D@__crt_stdio_input@@@__crt_strtox@@M@__crt_strtox@@YA?AW4SLD_STATUS@@QEAU__crt_locale_pointers@@V?$input_adapter_character_source@V?$stream_input_adapter@D@__crt_stdio_input@@@0@QEAM@Z 0000000140026ac0     libucrt:input.obj
 0002:00009ad8       $unwind$??$parse_floating_point_from_source@V?$input_adapter_character_source@V?$stream_input_adapter@D@__crt_stdio_input@@@__crt_strtox@@@__crt_strtox@@YA?AW4floating_point_parse_result@0@QEAU__crt_locale_pointers@@AEAV?$input_adapter_character_source@V?$stream_input_adapter@D@__crt_stdio_input@@@0@AEAUfloating_point_string@0@@Z 0000000140026ad8     libucrt:input.obj
 0002:00009af0       $unwind$??$parse_floating_point_from_source@V?$input_adapter_character_source@V?$string_input_adapter@D@__crt_stdio_input@@@__crt_strtox@@@__crt_strtox@@YA?AW4floating_point_parse_result@0@QEAU__crt_locale_pointers@@AEAV?$input_adapter_character_source@V?$string_input_adapter@D@__crt_stdio_input@@@0@AEAUfloating_point_string@0@@Z 0000000140026af0     libucrt:input.obj
 0002:00009b08       $unwind$??$parse_floating_point_possible_infinity@DV?$input_adapter_character_source@V?$stream_input_adapter@D@__crt_stdio_input@@@__crt_strtox@@_K@__crt_strtox@@YA?AW4floating_point_parse_result@0@AEADAEAV?$input_adapter_character_source@V?$stream_input_adapter@D@__crt_stdio_input@@@0@_K@Z 0000000140026b08     libucrt:input.obj
 0002:00009b1c       $unwind$??$parse_floating_point_possible_nan@DV?$input_adapter_character_source@V?$stream_input_adapter@D@__crt_stdio_input@@@__crt_strtox@@_K@__crt_strtox@@YA?AW4floating_point_parse_result@0@AEADAEAV?$input_adapter_character_source@V?$stream_input_adapter@D@__crt_stdio_input@@@0@_K@Z 0000000140026b1c     libucrt:input.obj
 0002:00009b30       $unwind$??$parse_floating_point_possible_infinity@DV?$input_adapter_character_source@V?$string_input_adapter@D@__crt_stdio_input@@@__crt_strtox@@_K@__crt_strtox@@YA?AW4floating_point_parse_result@0@AEADAEAV?$input_adapter_character_source@V?$string_input_adapter@D@__crt_stdio_input@@@0@_K@Z 0000000140026b30     libucrt:input.obj
 0002:00009b38       $unwind$??$parse_floating_point_possible_nan@DV?$input_adapter_character_source@V?$string_input_adapter@D@__crt_stdio_input@@@__crt_strtox@@_K@__crt_strtox@@YA?AW4floating_point_parse_result@0@AEADAEAV?$input_adapter_character_source@V?$string_input_adapter@D@__crt_stdio_input@@@0@_K@Z 0000000140026b38     libucrt:input.obj
 0002:00009b44       $unwind$??$common_fsopen@D@@YAPEAU_iobuf@@QEBD0H@Z 0000000140026b44     libucrt:fopen.obj
 0002:00009b6c       $unwind$fclose             0000000140026b6c     libucrt:fclose.obj
 0002:00009b90       $unwind$_configure_narrow_argv 0000000140026b90     libucrt:argv_parsing.obj
 0002:00009ba4       $unwind$??$parse_command_line@D@@YAXPEADPEAPEAD0PEA_K2@Z 0000000140026ba4     libucrt:argv_parsing.obj
 0002:00009ba4       $unwind$??R<lambda_4e60a939b0d047cfe11ddc22648dfba9>@@QEBAHXZ 0000000140026ba4     libucrt:onexit.obj
 0002:00009ba4       $unwind$?write_string@?$string_output_adapter@D@__crt_stdio_output@@QEBAXQEBDHQEAH1@Z 0000000140026ba4     libucrt:output.obj
 0002:00009bc0       $unwind$??$free_environment@D@@YAXQEAPEAD@Z 0000000140026bc0     libucrt:environment_initialization.obj
 0002:00009bc0       $unwind$??$free_environment@_W@@YAXQEAPEA_W@Z 0000000140026bc0     libucrt:environment_initialization.obj
 0002:00009bcc       $unwind$??$create_environment@D@@YAQEAPEADQEAD@Z 0000000140026bcc     libucrt:environment_initialization.obj
 0002:00009bcc       $unwind$__acrt_copy_path_to_wide_string 0000000140026bcc     libucrt:string_utilities.obj
 0002:00009be4       $unwind$??$initialize_environment_by_cloning_nolock@D@@YAHXZ 0000000140026be4     libucrt:environment_initialization.obj
 0002:00009bf4       $unwind$?common_exit@@YAXHW4_crt_exit_cleanup_mode@@W4_crt_exit_return_mode@@@Z 0000000140026bf4     libucrt:exit.obj
 0002:00009c34       $unwind$_setmode_nolock    0000000140026c34     libucrt:setmode.obj
 0002:00009c44       $unwind$__acrt_uninitialize_locale 0000000140026c44     libucrt:wsetlocale.obj
 0002:00009c64       $unwind$_register_onexit_function 0000000140026c64     libucrt:onexit.obj
 0002:00009c6c       $unwind$_execute_onexit_table 0000000140026c6c     libucrt:onexit.obj
 0002:00009c74       $unwind$??$?RV<lambda_b8c45f8f788dd370798f47cfe8ac3a86>@@AEAV<lambda_4e60a939b0d047cfe11ddc22648dfba9>@@V<lambda_332c3edc96d0294ec56c57d38c1cdfd5>@@@?$__crt_seh_guarded_call@H@@QEAAH$$QEAV<lambda_b8c45f8f788dd370798f47cfe8ac3a86>@@AEAV<lambda_4e60a939b0d047cfe11ddc22648dfba9>@@$$QEAV<lambda_332c3edc96d0294ec56c57d38c1cdfd5>@@@Z 0000000140026c74     libucrt:onexit.obj
 0002:00009c98       $unwind$??$?RV<lambda_e24bbb7b643b32fcea6fa61b31d4c984>@@AEAV<lambda_275893d493268fdec8709772e3fcec0e>@@V<lambda_9d71df4d7cf3f480f8d633942495c3b0>@@@?$__crt_seh_guarded_call@H@@QEAAH$$QEAV<lambda_e24bbb7b643b32fcea6fa61b31d4c984>@@AEAV<lambda_275893d493268fdec8709772e3fcec0e>@@$$QEAV<lambda_9d71df4d7cf3f480f8d633942495c3b0>@@@Z 0000000140026c98     libucrt:onexit.obj
 0002:00009cc8       $unwind$terminate          0000000140026cc8     libucrt:terminate.obj
 0002:00009ce8       $unwind$__acrt_call_reportfault 0000000140026ce8     libucrt:invalid_parameter.obj
 0002:00009d08       $unwind$_invalid_parameter 0000000140026d08     libucrt:invalid_parameter.obj
 0002:00009d20       $unwind$_updatetlocinfoEx_nolock 0000000140026d20     libucrt:locale_refcounting.obj
 0002:00009d20       $unwind$__acrt_getptd      0000000140026d20     libucrt:per_thread_data.obj
 0002:00009d20       $unwind$?replace_current_thread_locale_nolock@@YAXQEAU__acrt_ptd@@QEAU__crt_locale_data@@@Z 0000000140026d20     libucrt:per_thread_data.obj
 0002:00009d20       $unwind$??R<lambda_037e91eb5f7fe3a681de8d8491e423b3>@@QEBA_NXZ 0000000140026d20     libucrt:input.obj
 0002:00009d20       $unwind$?write_integer@?$input_processor@DV?$string_input_adapter@D@__crt_stdio_input@@@__crt_stdio_input@@AEAA_N_K_N@Z 0000000140026d20     libucrt:input.obj
 0002:00009d20       $unwind$?try_cor_exit_process@@YAXI@Z 0000000140026d20     libucrt:exit.obj
 0002:00009d20       $unwind$?process_floating_point_specifier@?$input_processor@DV?$string_input_adapter@D@__crt_stdio_input@@@__crt_stdio_input@@AEAA_NXZ 0000000140026d20     libucrt:input.obj
 0002:00009d20       $unwind$__acrt_invoke_user_matherr 0000000140026d20     libucrt:matherr.obj
 0002:00009d20       $unwind$?process_state@?$input_processor@DV?$stream_input_adapter@D@__crt_stdio_input@@@__crt_stdio_input@@AEAA_NXZ 0000000140026d20     libucrt:input.obj
 0002:00009d20       $unwind$__acrt_errno_map_os_error 0000000140026d20     libucrt:errno.obj
 0002:00009d20       $unwind$_realloc_base      0000000140026d20     libucrt:realloc_base.obj
 0002:00009d20       $unwind$?process_state@?$input_processor@DV?$string_input_adapter@D@__crt_stdio_input@@@__crt_stdio_input@@AEAA_NXZ 0000000140026d20     libucrt:input.obj
 0002:00009d20       $unwind$__acrt_FlsGetValue 0000000140026d20     libucrt:winapi_thunks.obj
 0002:00009d20       $unwind$??$common_initialize_environment_nolock@D@@YAHXZ 0000000140026d20     libucrt:environment_initialization.obj
 0002:00009d20       $unwind$_fclose_nolock     0000000140026d20     libucrt:fclose.obj
 0002:00009d20       $unwind$__acrt_FlsFree     0000000140026d20     libucrt:winapi_thunks.obj
 0002:00009d20       $unwind$?process_literal_character_tchar@?$input_processor@DV?$string_input_adapter@D@__crt_stdio_input@@@__crt_stdio_input@@AEAA_ND@Z 0000000140026d20     libucrt:input.obj
 0002:00009d20       $unwind$__acrt_FlsAlloc    0000000140026d20     libucrt:winapi_thunks.obj
 0002:00009d20       $unwind$??0_LocaleUpdate@@QEAA@QEAU__crt_locale_pointers@@@Z 0000000140026d20     libucrt:output.obj
 0002:00009d20       $unwind$?write_integer@?$input_processor@DV?$stream_input_adapter@D@__crt_stdio_input@@@__crt_stdio_input@@AEAA_N_K_N@Z 0000000140026d20     libucrt:input.obj
 0002:00009d20       $unwind$__acrt_stdio_begin_temporary_buffering_nolock 0000000140026d20     libucrt:_sftbuf.obj
 0002:00009d20       $unwind$?type_case_c_tchar@?$output_processor@DV?$string_output_adapter@D@__crt_stdio_output@@V?$standard_base@DV?$string_output_adapter@D@__crt_stdio_output@@@2@@__crt_stdio_output@@AEAA_ND@Z 0000000140026d20     libucrt:output.obj
 0002:00009d20       $unwind$__vcrt_FlsAlloc    0000000140026d20     libvcruntime:winapi_downlevel.obj
 0002:00009d20       $unwind$strncpy_s          0000000140026d20     libucrt:strncpy_s.obj
 0002:00009d20       $unwind$__acrt_uninitialize_lowio 0000000140026d20     libucrt:ioinit.obj
 0002:00009d20       $unwind$?process_floating_point_specifier@?$input_processor@DV?$stream_input_adapter@D@__crt_stdio_input@@@__crt_stdio_input@@AEAA_NXZ 0000000140026d20     libucrt:input.obj
 0002:00009d20       $unwind$?force_decimal_point@__crt_stdio_output@@YAXPEADQEAU__crt_locale_pointers@@@Z 0000000140026d20     libucrt:output.obj
 0002:00009d20       $unwind$?internal_isupper_l@@YA_NHQEAU__crt_locale_pointers@@@Z 0000000140026d20     libucrt:tolower_toupper.obj
 0002:00009d20       $unwind$?process_conversion_specifier@?$input_processor@DV?$stream_input_adapter@D@__crt_stdio_input@@@__crt_stdio_input@@AEAA_NXZ 0000000140026d20     libucrt:input.obj
 0002:00009d20       $unwind$_callnewh          0000000140026d20     libucrt:new_handler.obj
 0002:00009d20       $unwind$?process_literal_character_tchar@?$input_processor@DV?$stream_input_adapter@D@__crt_stdio_input@@@__crt_stdio_input@@AEAA_ND@Z 0000000140026d20     libucrt:input.obj
 0002:00009d20       $unwind$_ungetc_nolock     0000000140026d20     libucrt:ungetc.obj
 0002:00009d20       $unwind$__vcrt_FlsFree     0000000140026d20     libvcruntime:winapi_downlevel.obj
 0002:00009d20       $unwind$??R<lambda_faed2df532bb37849f111efe98abdd75>@@QEBA_NXZ 0000000140026d20     libucrt:input.obj
 0002:00009d20       $unwind$??R<lambda_b9821a569aa5955fc6d82138aaf53eb6>@@QEBA_NXZ 0000000140026d20     libucrt:input.obj
 0002:00009d20       $unwind$?type_case_c_tchar@?$output_processor@DV?$stream_output_adapter@D@__crt_stdio_output@@V?$standard_base@DV?$stream_output_adapter@D@__crt_stdio_output@@@2@@__crt_stdio_output@@AEAA_ND@Z 0000000140026d20     libucrt:output.obj
 0002:00009d20       $unwind$?process_conversion_specifier@?$input_processor@DV?$string_input_adapter@D@__crt_stdio_input@@@__crt_stdio_input@@AEAA_NXZ 0000000140026d20     libucrt:input.obj
 0002:00009d20       $unwind$_close_nolock      0000000140026d20     libucrt:close.obj
 0002:00009d2c       $unwind$__acrt_initialize_winapi_thunks 0000000140026d2c     libucrt:winapi_thunks.obj
 0002:00009d34       $unwind$__acrt_LCMapStringEx 0000000140026d34     libucrt:winapi_thunks.obj
 0002:00009d34       $unwind$_mbtowc_l          0000000140026d34     libucrt:mbtowc.obj
 0002:00009d34       $unwind$__acrt_CompareStringEx 0000000140026d34     libucrt:winapi_thunks.obj
 0002:00009d4c       $unwind$__acrt_is_packaged_app 0000000140026d4c     libucrt:winapi_thunks.obj
 0002:00009d58       $unwind$?try_get_function@@YAPEAXW4function_id@?A0x63058377@@QEBDQEBW4module_id@2@2@Z 0000000140026d58     libucrt:winapi_thunks.obj
 0002:00009d58       $unwind$??$process_string_specifier_tchar@D@?$input_processor@DV?$stream_input_adapter@D@__crt_stdio_input@@@__crt_stdio_input@@AEAA_NW4conversion_mode@1@D@Z 0000000140026d58     libucrt:input.obj
 0002:00009d58       $unwind$?try_get_function@@YAPEAXW4function_id@?A0x679b24ab@@QEBDQEBW4module_id@2@2@Z 0000000140026d58     libvcruntime:winapi_downlevel.obj
 0002:00009d74       $unwind$_fcloseall         0000000140026d74     libucrt:closeall.obj
 0002:00009d98       $unwind$common_flush_all   0000000140026d98     libucrt:fflush.obj
 0002:00009dd4       $unwind$__acrt_initialize_lowio 0000000140026dd4     libucrt:ioinit.obj
 0002:00009df4       $unwind$?initialize_inherited_file_handles_nolock@@YAXXZ 0000000140026df4     libucrt:ioinit.obj
 0002:00009e10       $unwind$?initialize_stdio_handles_nolock@@YAXXZ 0000000140026e10     libucrt:ioinit.obj
 0002:00009e10       $unwind$_free_osfhnd       0000000140026e10     libucrt:osfinfo.obj
 0002:00009e24       $unwind$_isleadbyte_l      0000000140026e24     libucrt:_wctype.obj
 0002:00009e24       $unwind$isdigit            0000000140026e24     libucrt:_ctype.obj
 0002:00009e24       $unwind$?getSystemCP@@YAHH@Z 0000000140026e24     libucrt:mbctype.obj
 0002:00009e24       $unwind$isspace            0000000140026e24     libucrt:_ctype.obj
 0002:00009e2c       $unwind$_tolower_l         0000000140026e2c     libucrt:tolower_toupper.obj
 0002:00009e3c       $unwind$strtoull           0000000140026e3c     libucrt:strtox.obj
 0002:00009e3c       $unwind$strtol             0000000140026e3c     libucrt:strtox.obj
 0002:00009e44       $unwind$_wctomb_s_l        0000000140026e44     libucrt:wctomb.obj
 0002:00009e54       $unwind$wcsnlen            0000000140026e54     libucrt:strnlen.obj
 0002:00009e54       $unwind$strnlen            0000000140026e54     libucrt:strnlen.obj
 0002:00009e5c       $unwind$?construct_ptd_array@@YAXQEAU__acrt_ptd@@@Z 0000000140026e5c     libucrt:per_thread_data.obj
 0002:00009e64       $unwind$?destroy_ptd_array@@YAXQEAU__acrt_ptd@@@Z 0000000140026e64     libucrt:per_thread_data.obj
 0002:00009e6c       $unwind$??$?RV<lambda_72d1df2b273a38828b1ce30cbf4cdab5>@@AEAV<lambda_876a65b173b8412d3a47c70a915b0cf4>@@V<lambda_41932305e351933ebe8f8be3ed8bb5dc>@@@?$__crt_seh_guarded_call@X@@QEAAX$$QEAV<lambda_72d1df2b273a38828b1ce30cbf4cdab5>@@AEAV<lambda_876a65b173b8412d3a47c70a915b0cf4>@@$$QEAV<lambda_41932305e351933ebe8f8be3ed8bb5dc>@@@Z 0000000140026e6c     libucrt:per_thread_data.obj
 0002:00009e90       $unwind$??$?RV<lambda_5e887d1dcbef67a5eb4283622ba103bf>@@AEAV<lambda_4466841279450cc726390878d4a41900>@@V<lambda_341c25c0346d94847f1f3c463c57e077>@@@?$__crt_seh_guarded_call@X@@QEAAX$$QEAV<lambda_5e887d1dcbef67a5eb4283622ba103bf>@@AEAV<lambda_4466841279450cc726390878d4a41900>@@$$QEAV<lambda_341c25c0346d94847f1f3c463c57e077>@@@Z 0000000140026e90     libucrt:per_thread_data.obj
 0002:00009eb4       $unwind$??$?RV<lambda_46352004c1216016012b18bd6f87e700>@@AEAV<lambda_3bd07e1a1191394380780325891bf33f>@@V<lambda_334532d3f185bcaa59b5be82d7d22bff>@@@?$__crt_seh_guarded_call@X@@QEAAX$$QEAV<lambda_46352004c1216016012b18bd6f87e700>@@AEAV<lambda_3bd07e1a1191394380780325891bf33f>@@$$QEAV<lambda_334532d3f185bcaa59b5be82d7d22bff>@@@Z 0000000140026eb4     libucrt:per_thread_data.obj
 0002:00009ed8       $unwind$??$?RV<lambda_fb3a7dec4e47f37f22dae91bb15c9095>@@AEAV<lambda_698284760c8add0bfb0756c19673e34b>@@V<lambda_dfb8eca1e75fef3034a8fb18dd509707>@@@?$__crt_seh_guarded_call@X@@QEAAX$$QEAV<lambda_fb3a7dec4e47f37f22dae91bb15c9095>@@AEAV<lambda_698284760c8add0bfb0756c19673e34b>@@$$QEAV<lambda_dfb8eca1e75fef3034a8fb18dd509707>@@@Z 0000000140026ed8     libucrt:per_thread_data.obj
 0002:00009efc       $unwind$__acrt_fp_format   0000000140026efc     libucrt:cvt.obj
 0002:00009f18       $unwind$?fp_format_nan_or_infinity@@YAHW4__acrt_fp_class@@_NPEAD_K1@Z 0000000140026f18     libucrt:cvt.obj
 0002:00009f2c       $unwind$?fp_format_e_internal@@YAHQEAD_KH_NIQEAU_strflt@@2QEAU__crt_locale_pointers@@@Z 0000000140026f2c     libucrt:cvt.obj
 0002:00009f44       $unwind$?fp_format_a@@YAHQEBNPEAD_KQEAD2H_NIQEAU__crt_locale_pointers@@@Z 0000000140026f44     libucrt:cvt.obj
 0002:00009f60       $unwind$__dcrt_get_narrow_environment_from_os 0000000140026f60     libucrt:get_environment_from_os.obj
 0002:00009f60       $unwind$?fp_format_f_internal@@YAHQEAD_KHQEAU_strflt@@_NQEAU__crt_locale_pointers@@@Z 0000000140026f60     libucrt:cvt.obj
 0002:00009f78       $unwind$?fp_format_g@@YAHQEBNQEAD_K12H_NIQEAU__crt_locale_pointers@@@Z 0000000140026f78     libucrt:cvt.obj
 0002:00009f8c       $unwind$__vcrt_uninitialize_winapi_thunks 0000000140026f8c     libvcruntime:winapi_downlevel.obj
 0002:00009f8c       $unwind$__acrt_stdio_end_temporary_buffering_nolock 0000000140026f8c     libucrt:_sftbuf.obj
 0002:00009f94       $unwind$_isctype_l         0000000140026f94     libucrt:isctype.obj
 0002:00009fb0       $unwind$_get_fmode         0000000140026fb0     libucrt:setmode.obj
 0002:00009fb0       $unwind$__dcrt_terminate_console_output 0000000140026fb0     libucrt:initcon.obj
 0002:00009fb0       $unwind$mainCRTStartup     0000000140026fb0     LIBCMT:exe_main.obj
 0002:00009fb0       $unwind$??$uninitialize_environment_internal@D@@YAXAEAPEAPEAD@Z 0000000140026fb0     libucrt:environment_initialization.obj
 0002:00009fb0       $unwind$__acrt_initialize_heap 0000000140026fb0     libucrt:heap_handle.obj
 0002:00009fb0       $unwind$__doserrno         0000000140026fb0     libucrt:errno.obj
 0002:00009fb0       $unwind$_set_new_mode      0000000140026fb0     libucrt:new_mode.obj
 0002:00009fb0       $unwind$__report_rangecheckfailure 0000000140026fb0     LIBCMT:gs_report.obj
 0002:00009fb0       $unwind$atexit             0000000140026fb0     LIBCMT:utility.obj
 0002:00009fb0       $unwind$__scrt_is_managed_app 0000000140026fb0     LIBCMT:utility_desktop.obj
 0002:00009fb0       $unwind$_getfpstatusword   0000000140026fb0     libucrt:_fenvutils.obj
 0002:00009fb0       $unwind$__vcrt_freefls     0000000140026fb0     libvcruntime:per_thread_data.obj
 0002:00009fb0       $unwind$__scrt_initialize_default_local_stdio_options 0000000140026fb0     LIBCMT:default_local_stdio_options.obj
 0002:00009fb0       $unwind$_errno             0000000140026fb0     libucrt:errno.obj
 0002:00009fb0       $unwind$??$uninitialize_environment_internal@_W@@YAXAEAPEAPEA_W@Z 0000000140026fb0     libucrt:environment_initialization.obj
 0002:00009fb0       $unwind$_get_osfhandle     0000000140026fb0     libucrt:osfinfo.obj
 0002:00009fb0       $unwind$_set_fmode         0000000140026fb0     libucrt:setmode.obj
 0002:00009fb0       $unwind$_set_errno_from_matherr 0000000140026fb0     libucrt:fpexcept.obj
 0002:00009fb0       $unwind$_statfp            0000000140026fb0     libucrt:fpctrl.obj
 0002:00009fb0       $unwind$__acrt_initialize_ptd 0000000140026fb0     libucrt:per_thread_data.obj
 0002:00009fb0       $unwind$_get_initial_narrow_environment 0000000140026fb0     libucrt:environment_initialization.obj
 0002:00009fb0       $unwind$?pre_cpp_initialization@@YAXXZ 0000000140026fb0     LIBCMT:exe_main.obj
 0002:00009fb0       $unwind$?initialize_multibyte@@YAHXZ 0000000140026fb0     libucrt:multibyte_initializer.obj
 0002:00009fb0       $unwind$__acrt_initialize_command_line 0000000140026fb0     libucrt:argv_data.obj
 0002:00009fb0       $unwind$__acrt_uninitialize_ptd 0000000140026fb0     libucrt:per_thread_data.obj
 0002:00009fb0       $unwind$_msize             0000000140026fb0     libucrt:msize.obj
 0002:00009fb0       $unwind$__scrt_acquire_startup_lock 0000000140026fb0     LIBCMT:utility.obj
 0002:00009fb0       $unwind$?post_pgo_initialization@@YAHXZ 0000000140026fb0     LIBCMT:exe_main.obj
 0002:00009fb0       $unwind$__acrt_DownlevelLocaleNameToLCID 0000000140026fb0     libucrt:lcidtoname_downlevel.obj
 0002:00009fb0       $unwind$__scrt_unhandled_exception_filter 0000000140026fb0     LIBCMT:utility_desktop.obj
 0002:00009fb0       $unwind$_strnicmp          0000000140026fb0     libucrt:strnicmp.obj
 0002:00009fb0       $unwind$_invoke_watson     0000000140026fb0     libucrt:invalid_parameter.obj
 0002:00009fb0       $unwind$fegetround         0000000140026fb0     libucrt:fegetround.obj
 0002:00009fb0       $unwind$__acrt_release_locale_ref 0000000140026fb0     libucrt:locale_refcounting.obj
 0002:00009fb0       $unwind$?state_case_size@?$output_processor@DV?$string_output_adapter@D@__crt_stdio_output@@V?$standard_base@DV?$string_output_adapter@D@__crt_stdio_output@@@2@@__crt_stdio_output@@AEAA_NXZ 0000000140026fb0     libucrt:output.obj
 0002:00009fb0       $unwind$uninitialize_environment 0000000140026fb0     libucrt:initialization.obj
 0002:00009fb0       $unwind$_fileno            0000000140026fb0     libucrt:fileno.obj
 0002:00009fb0       $unwind$__vcrt_uninitialize_ptd 0000000140026fb0     libvcruntime:per_thread_data.obj
 0002:00009fb0       $unwind$abort              0000000140026fb0     libucrt:abort.obj
 0002:00009fb0       $unwind$?validate_stream_is_ansi_if_required@?$__acrt_stdio_char_traits@D@@SA_NQEAU_iobuf@@@Z 0000000140026fb0     libucrt:output.obj
 0002:00009fb0       $unwind$initialize_c       0000000140026fb0     libucrt:initialization.obj
 0002:00009fb0       $unwind$_fgetc_nolock      0000000140026fb0     libucrt:fgetc.obj
 0002:00009fb0       $unwind$__dcrt_uninitialize_environments_nolock 0000000140026fb0     libucrt:environment_initialization.obj
 0002:00009fb0       $unwind$?state_case_normal_tchar@?$output_processor@DV?$string_output_adapter@D@__crt_stdio_output@@V?$standard_base@DV?$string_output_adapter@D@__crt_stdio_output@@@2@@__crt_stdio_output@@AEAA_ND@Z 0000000140026fb0     libucrt:output.obj
 0002:00009fb0       $unwind$__vcrt_initialize  0000000140026fb0     libvcruntime:initialization.obj
 0002:00009fb0       $unwind$__GSHandlerCheck   0000000140026fb0     LIBCMT:_gshandler_.obj
 0002:00009fb0       $unwind$__vcrt_initialize_ptd 0000000140026fb0     libvcruntime:per_thread_data.obj
 0002:00009fb0       $unwind$__pctype_func      0000000140026fb0     libucrt:ctype.obj
 0002:00009fb0       $unwind$__vcrt_uninitialize 0000000140026fb0     libvcruntime:initialization.obj
 0002:00009fb0       $unwind$_register_thread_local_exe_atexit_callback 0000000140026fb0     libucrt:exit.obj
 0002:00009fb0       $unwind$?state_case_size@?$output_processor@DV?$stream_output_adapter@D@__crt_stdio_output@@V?$standard_base@DV?$stream_output_adapter@D@__crt_stdio_output@@@2@@__crt_stdio_output@@AEAA_NXZ 0000000140026fb0     libucrt:output.obj
 0002:00009fb0       $unwind$__acrt_initialize_multibyte 0000000140026fb0     libucrt:mbctype.obj
 0002:00009fb0       $unwind$_isatty            0000000140026fb0     libucrt:isatty.obj
 0002:00009fb0       $unwind$_getfpcontrolword  0000000140026fb0     libucrt:_fenvutils.obj
 0002:00009fb0       $unwind$tolower            0000000140026fb0     libucrt:tolower_toupper.obj
 0002:00009fb8       $unwind$?__acrt_stdio_allocate_stream@@YA?AV__crt_stdio_stream@@XZ 0000000140026fb8     libucrt:stream.obj
 0002:00009fd8       $unwind$_openfile          0000000140026fd8     libucrt:openfile.obj
 0002:00009fec       $unwind$_close             0000000140026fec     libucrt:close.obj
 0002:00009fec       $unwind$_commit            0000000140026fec     libucrt:commit.obj
 0002:00009ff4       $unwind$??$?RV<lambda_bfedae4ebbf01fab1bb6dcc6a9e276e0>@@AEAV<lambda_2fe9b910cf3cbf4a0ab98a02ba45b3ec>@@V<lambda_237c231691f317818eb88cc1d5d642d6>@@@?$__crt_seh_guarded_call@H@@QEAAH$$QEAV<lambda_bfedae4ebbf01fab1bb6dcc6a9e276e0>@@AEAV<lambda_2fe9b910cf3cbf4a0ab98a02ba45b3ec>@@$$QEAV<lambda_237c231691f317818eb88cc1d5d642d6>@@@Z 0000000140026ff4     libucrt:close.obj
 0002:0000a018       $unwind$??$common_expand_argv_wildcards@D@@YAHQEAPEADQEAPEAPEAD@Z 0000000140027018     libucrt:argv_wildcards.obj
 0002:0000a030       $unwind$??$copy_and_add_argument_to_buffer@D@@YAHQEBD0_KAEAV?$argument_list@D@?A0xca0879c4@@@Z 0000000140027030     libucrt:argv_wildcards.obj
 0002:0000a04c       $unwind$??$expand_argument_wildcards@D@@YAHQEAD0AEAV?$argument_list@D@?A0xca0879c4@@@Z 000000014002704c     libucrt:argv_wildcards.obj
 0002:0000a06c       $unwind$__acrt_update_thread_multibyte_data 000000014002706c     libucrt:mbctype.obj
 0002:0000a090       $unwind$_setmbcp_nolock    0000000140027090     libucrt:mbctype.obj
 0002:0000a0b0       $unwind$?setSBUpLow@@YAXPEAU__crt_multibyte_data@@@Z 00000001400270b0     libucrt:mbctype.obj
 0002:0000a0cc       $unwind$?setmbcp_internal@@YAHH_N@Z 00000001400270cc     libucrt:mbctype.obj
 0002:0000a0dc       $unwind$??$?RV<lambda_99476a1ad63dd22509b5d3e65b0ffc95>@@AEAV<lambda_ad1ced32f4ac17aa236e5ef05d6b3b7c>@@V<lambda_f7424dd8d45958661754dc4f2697e9c3>@@@?$__crt_seh_guarded_call@X@@QEAAX$$QEAV<lambda_99476a1ad63dd22509b5d3e65b0ffc95>@@AEAV<lambda_ad1ced32f4ac17aa236e5ef05d6b3b7c>@@$$QEAV<lambda_f7424dd8d45958661754dc4f2697e9c3>@@@Z 00000001400270dc     libucrt:mbctype.obj
 0002:0000a100       $unwind$?x_ismbbtype_l@@YAHPEAU__crt_locale_pointers@@IHH@Z 0000000140027100     libucrt:ismbbyte.obj
 0002:0000a110       $unwind$?assemble_floating_point_value@__crt_strtox@@YA?AW4SLD_STATUS@@_KH_N1AEBVfloating_point_value@1@@Z 0000000140027110     libucrt:input.obj
 0002:0000a110       $unwind$??$common_set_variable_in_environment_nolock@D@@YAHQEADH@Z 0000000140027110     libucrt:setenv.obj
 0002:0000a128       $unwind$??$copy_environment@D@@YAPEAPEADQEAPEAD@Z 0000000140027128     libucrt:setenv.obj
 0002:0000a13c       $unwind$_alloc_osfhnd      000000014002713c     libucrt:osfinfo.obj
 0002:0000a16c       $unwind$_initterm          000000014002716c     libucrt:initterm.obj
 0002:0000a16c       $unwind$??$process_string_specifier_tchar@D@?$input_processor@DV?$string_input_adapter@D@__crt_stdio_input@@@__crt_stdio_input@@AEAA_NW4conversion_mode@1@D@Z 000000014002716c     libucrt:input.obj
 0002:0000a16c       $unwind$__acrt_lowio_set_os_handle 000000014002716c     libucrt:osfinfo.obj
 0002:0000a16c       $unwind$__acrt_initialize_stdio 000000014002716c     libucrt:_file.obj
 0002:0000a184       $unwind$__acrt_lowio_destroy_handle_array 0000000140027184     libucrt:osfinfo.obj
 0002:0000a194       $unwind$__acrt_lowio_ensure_fh_exists 0000000140027194     libucrt:osfinfo.obj
 0002:0000a1c0       $unwind$__acrt_locale_free_monetary 00000001400271c0     libucrt:initmon.obj
 0002:0000a1c8       $unwind$_free_base         00000001400271c8     libucrt:free_base.obj
 0002:0000a1c8       $unwind$?destroy_fls@@YAXPEAX@Z 00000001400271c8     libucrt:per_thread_data.obj
 0002:0000a1c8       $unwind$__acrt_locale_free_lc_time_if_unreferenced 00000001400271c8     libucrt:locale_refcounting.obj
 0002:0000a1c8       $unwind$__acrt_locale_free_numeric 00000001400271c8     libucrt:initnum.obj
 0002:0000a1d0       $unwind$__acrt_locale_free_time 00000001400271d0     libucrt:inittime.obj
 0002:0000a1e0       $unwind$__acrt_GetStringTypeA 00000001400271e0     libucrt:getstringtypea.obj
 0002:0000a208       $unwind$__acrt_update_thread_locale_data 0000000140027208     libucrt:locale_refcounting.obj
 0002:0000a22c       $unwind$__acrt_InitializeCriticalSectionEx 000000014002722c     libucrt:winapi_thunks.obj
 0002:0000a22c       $unwind$??$skip_whitespace@Vstring_input_adapter@__crt_stdio_input@@D@__crt_stdio_input@@YAHAEAV?$string_input_adapter@D@0@QEAU__crt_locale_pointers@@@Z 000000014002722c     libucrt:input.obj
 0002:0000a22c       $unwind$??$ensure_buffer_is_big_enough@D@formatting_buffer@__crt_stdio_output@@QEAA_N_K@Z 000000014002722c     libucrt:output.obj
 0002:0000a22c       $unwind$?find_or_allocate_unused_stream_nolock@@YA?AV__crt_stdio_stream@@XZ 000000014002722c     libucrt:stream.obj
 0002:0000a22c       $unwind$??$skip_whitespace@Vstream_input_adapter@__crt_stdio_input@@D@__crt_stdio_input@@YAHAEAV?$stream_input_adapter@D@0@QEAU__crt_locale_pointers@@@Z 000000014002722c     libucrt:input.obj
 0002:0000a22c       $unwind$__acrt_execute_initializers 000000014002722c     libucrt:shared_initialization.obj
 0002:0000a22c       $unwind$__vcrt_InitializeCriticalSectionEx 000000014002722c     libvcruntime:winapi_downlevel.obj
 0002:0000a22c       $unwind$__acrt_lowio_create_handle_array 000000014002722c     libucrt:osfinfo.obj
 0002:0000a22c       $unwind$_seh_filter_exe    000000014002722c     libucrt:exception_filter.obj
 0002:0000a22c       $unwind$?setSBCS@@YAXPEAU__crt_multibyte_data@@@Z 000000014002722c     libucrt:mbctype.obj
 0002:0000a22c       $unwind$_recalloc_base     000000014002722c     libucrt:recalloc.obj
 0002:0000a22c       $unwind$__acrt_free_locale 000000014002722c     libucrt:locale_refcounting.obj
 0002:0000a22c       $unwind$?expand_if_necessary@?$argument_list@D@?A0xca0879c4@@AEAAHXZ 000000014002722c     libucrt:argv_wildcards.obj
 0002:0000a240       $unwind$_query_new_handler 0000000140027240     libucrt:new_handler.obj
 0002:0000a260       $unwind$__acrt_get_sigabrt_handler 0000000140027260     libucrt:signal.obj
 0002:0000a268       $unwind$raise              0000000140027268     libucrt:signal.obj
 0002:0000a294       $unwind$??$?RV<lambda_c36588078e9f5dfd39652860aa6b3aaf>@@AEAV<lambda_ec61778202f4f5fc7e7711acc23c3bca>@@V<lambda_dc9d2797ccde5d239b4a0efae8ebd7db>@@@?$__crt_seh_guarded_call@P6AXH@Z@@QEAAP6AXH@Z$$QEAV<lambda_c36588078e9f5dfd39652860aa6b3aaf>@@AEAV<lambda_ec61778202f4f5fc7e7711acc23c3bca>@@$$QEAV<lambda_dc9d2797ccde5d239b4a0efae8ebd7db>@@@Z 0000000140027294     libucrt:signal.obj
 0002:0000a2b8       $unwind$?GetTableIndexFromLocaleName@@YAHPEB_W@Z 00000001400272b8     libucrt:lcidtoname_downlevel.obj
 0002:0000a2d0       $unwind$??$?RV<lambda_b521505b218e5242e90febf6bfebc422>@@AEAV<lambda_6978c1fb23f02e42e1d9e99668cc68aa>@@V<lambda_314360699dd331753a4119843814e9a7>@@@?$__crt_seh_guarded_call@H@@QEAAH$$QEAV<lambda_b521505b218e5242e90febf6bfebc422>@@AEAV<lambda_6978c1fb23f02e42e1d9e99668cc68aa>@@$$QEAV<lambda_314360699dd331753a4119843814e9a7>@@@Z 00000001400272d0     libucrt:commit.obj
 0002:0000a2f4       $unwind$_write             00000001400272f4     libucrt:write.obj
 0002:0000a324       $unwind$_write_nolock      0000000140027324     libucrt:write.obj
 0002:0000a33c       $unwind$?write_double_translated_ansi_nolock@@YA?AUwrite_result@?A0x9c548279@@HQEBDI@Z 000000014002733c     libucrt:write.obj
 0002:0000a35c       $unwind$?write_text_ansi_nolock@@YA?AUwrite_result@?A0x9c548279@@HQEBDI@Z 000000014002735c     libucrt:write.obj
 0002:0000a35c       $unwind$?write_text_utf16le_nolock@@YA?AUwrite_result@?A0x9c548279@@HQEBDI@Z 000000014002735c     libucrt:write.obj
 0002:0000a37c       $unwind$?write_text_utf8_nolock@@YA?AUwrite_result@?A0x9c548279@@HQEBDI@Z 000000014002737c     libucrt:write.obj
 0002:0000a3a0       $unwind$__acrt_LCMapStringA 00000001400273a0     libucrt:lcmapstringa.obj
 0002:0000a3b0       $unwind$?__acrt_LCMapStringA_stat@@YAHPEAU__crt_locale_pointers@@PEB_WKPEBDHPEADHHH@Z 00000001400273b0     libucrt:lcmapstringa.obj
 0002:0000a3d8       $unwind$__acrt_fltout      00000001400273d8     libucrt:cfout.obj
 0002:0000a3f8       $unwind$??$write_buffer_nolock@D@@YA_NDV__crt_stdio_stream@@@Z 00000001400273f8     libucrt:_flsbuf.obj
 0002:0000a408       $unwind$_raise_exc_ex      0000000140027408     libucrt:fpexcept.obj
 0002:0000a408       $unwind$??$common_refill_and_read_nolock@D@@YAHV__crt_stdio_stream@@@Z 0000000140027408     libucrt:_filbuf.obj
 0002:0000a420       $xdatasym                  0000000140027420     libucrt:strncmp.obj
 0002:0000a424       $unwind$_strnicmp_l        0000000140027424     libucrt:strnicmp.obj
 0002:0000a438       $unwind$_log10_special     0000000140027438     libucrt:log_special.obj
 0002:0000a438       $unwind$wctomb_s           0000000140027438     libucrt:wctomb.obj
 0002:0000a438       $unwind$?as_double@floating_point_value@__crt_strtox@@QEBAAEANXZ 0000000140027438     libucrt:input.obj
 0002:0000a438       $unwind$??$parse_floating_point_write_result@N@__crt_strtox@@YA?AW4SLD_STATUS@@W4floating_point_parse_result@0@AEBUfloating_point_string@0@QEAN@Z 0000000140027438     libucrt:input.obj
 0002:0000a438       $unwind$_log_special       0000000140027438     libucrt:log_special.obj
 0002:0000a438       $unwind$?as_float@floating_point_value@__crt_strtox@@QEBAAEAMXZ 0000000140027438     libucrt:input.obj
 0002:0000a438       $unwind$??$parse_floating_point_write_result@M@__crt_strtox@@YA?AW4SLD_STATUS@@W4floating_point_parse_result@0@AEBUfloating_point_string@0@QEAM@Z 0000000140027438     libucrt:input.obj
 0002:0000a438       $unwind$_sopen_s           0000000140027438     libucrt:open.obj
 0002:0000a438       $unwind$_invalid_parameter_noinfo 0000000140027438     libucrt:invalid_parameter.obj
 0002:0000a440       $unwind$?fp_format_e@@YAHQEBNQEAD_K12H_NIQEAU__crt_locale_pointers@@@Z 0000000140027440     libucrt:cvt.obj
 0002:0000a440       $unwind$_sopen_nolock      0000000140027440     libucrt:open.obj
 0002:0000a454       $unwind$_wsopen_nolock     0000000140027454     libucrt:open.obj
 0002:0000a470       $unwind$??$common_sopen_dispatch@D@@YAHQEBDHHHQEAHH@Z 0000000140027470     libucrt:open.obj
 0002:0000a494       $unwind$?fin$0@?0???$common_sopen_dispatch@D@@YAHQEBDHHHQEAHH@Z@4HA 0000000140027494     libucrt:open.obj
 0002:0000a49c       $unwind$?decode_options@@YA?AUfile_options@?A0x656cf9f4@@HHH@Z 000000014002749c     libucrt:open.obj
 0002:0000a4b0       $unwind$?truncate_ctrl_z_if_present@@YAHH@Z 00000001400274b0     libucrt:open.obj
 0002:0000a4c0       $unwind$qsort              00000001400274c0     libucrt:qsort.obj
 0002:0000a4d8       $chain$4$qsort             00000001400274d8     libucrt:qsort.obj
 0002:0000a4fc       $chain$5$qsort             00000001400274fc     libucrt:qsort.obj
 0002:0000a50c       $unwind$?shortsort@@YAXPEAD0_KP6AHPEBX2@Z@Z 000000014002750c     libucrt:qsort.obj
 0002:0000a51c       $chain$2$?shortsort@@YAXPEAD0_KP6AHPEBX2@Z@Z 000000014002751c     libucrt:qsort.obj
 0002:0000a538       $chain$3$?shortsort@@YAXPEAD0_KP6AHPEBX2@Z@Z 0000000140027538     libucrt:qsort.obj
 0002:0000a548       $unwind$strpbrk            0000000140027548     libucrt:strpbrk.obj
 0002:0000a558       $unwind$_mbsdec_l          0000000140027558     libucrt:mbsdec.obj
 0002:0000a564       $unwind$_strnicoll_l       0000000140027564     libucrt:strnicol.obj
 0002:0000a578       $unwind$??$common_lseek@_J@@YA_JH_JH@Z 0000000140027578     libucrt:lseek.obj
 0002:0000a5a8       $unwind$_putwch_nolock     00000001400275a8     libucrt:putwch.obj
 0002:0000a5a8       $unwind$__report_gsfailure 00000001400275a8     LIBCMT:gs_report.obj
 0002:0000a5b0       $xdatasym                  00000001400275b0     libucrt:log10.obj
 0002:0000a5bc       $unwind$_read              00000001400275bc     libucrt:read.obj
 0002:0000a5e8       $unwind$_read_nolock       00000001400275e8     libucrt:read.obj
 0002:0000a600       $unwind$?translate_ansi_or_utf8_nolock@@YAHHQEAD_KQEA_W1@Z 0000000140027600     libucrt:read.obj
 0002:0000a618       $unwind$??$translate_text_mode_nolock@_W@@YAHHQEA_W_K@Z 0000000140027618     libucrt:read.obj
 0002:0000a630       $unwind$__acrt_uninitialize_winapi_thunks 0000000140027630     libucrt:winapi_thunks.obj
 0002:0000a630       $unwind$__acrt_AreFileApisANSI 0000000140027630     libucrt:winapi_thunks.obj
 0002:0000a630       $unwind$_calloc_base       0000000140027630     libucrt:calloc_base.obj
 0002:0000a630       $unwind$__acrt_allocate_buffer_for_argv 0000000140027630     libucrt:argv_parsing.obj
 0002:0000a630       $unwind$_configthreadlocale 0000000140027630     libucrt:wsetlocale.obj
 0002:0000a630       $unwind$?state_case_normal_tchar@?$output_processor@DV?$stream_output_adapter@D@__crt_stdio_output@@V?$standard_base@DV?$stream_output_adapter@D@__crt_stdio_output@@@2@@__crt_stdio_output@@AEAA_ND@Z 0000000140027630     libucrt:output.obj
 0002:0000a630       $unwind$__vcrt_uninitialize_locks 0000000140027630     libvcruntime:locks.obj
 0002:0000a630       $unwind$__raise_securityfailure 0000000140027630     LIBCMT:gs_report.obj
 0002:0000a630       $unwind$initialize_pointers 0000000140027630     libucrt:initialization.obj
 0002:0000a630       $unwind$?exit_or_terminate_process@@YAXI@Z 0000000140027630     libucrt:exit.obj
 0002:0000a630       $unwind$uninitialize_allocated_memory 0000000140027630     libucrt:initialization.obj
 0002:0000a630       $unwind$?type_case_integer@?$output_processor@DV?$string_output_adapter@D@__crt_stdio_output@@V?$standard_base@DV?$string_output_adapter@D@__crt_stdio_output@@@2@@__crt_stdio_output@@AEAA_NI_N@Z 0000000140027630     libucrt:output.obj
 0002:0000a630       $unwind$_setfpstatusword   0000000140027630     libucrt:_fenvutils.obj
 0002:0000a630       $unwind$strcpy_s           0000000140027630     libucrt:strcpy_s.obj
 0002:0000a630       $unwind$__scrt_uninitialize_crt 0000000140027630     LIBCMT:utility.obj
 0002:0000a630       $unwind$?pre_c_initialization@@YAHXZ 0000000140027630     LIBCMT:exe_main.obj
 0002:0000a630       $unwind$__vcrt_initialize_locks 0000000140027630     libvcruntime:locks.obj
 0002:0000a630       $unwind$__acrt_uninitialize_locks 0000000140027630     libucrt:locks.obj
 0002:0000a630       $unwind$__scrt_initialize_crt 0000000140027630     LIBCMT:utility.obj
 0002:0000a630       $unwind$_set_statfp        0000000140027630     libucrt:fpctrl.obj
 0002:0000a630       $unwind$?state_case_normal@?$output_processor@DV?$stream_output_adapter@D@__crt_stdio_output@@V?$standard_base@DV?$stream_output_adapter@D@__crt_stdio_output@@@2@@__crt_stdio_output@@AEAA_NXZ 0000000140027630     libucrt:output.obj
 0002:0000a630       $unwind$__acrt_fp_strflt_to_string 0000000140027630     libucrt:_fptostr.obj
 0002:0000a630       $unwind$?type_case_integer@?$output_processor@DV?$stream_output_adapter@D@__crt_stdio_output@@V?$standard_base@DV?$stream_output_adapter@D@__crt_stdio_output@@@2@@__crt_stdio_output@@AEAA_NI_N@Z 0000000140027630     libucrt:output.obj
 0002:0000a630       $unwind$__acrt_uninitialize_stdio 0000000140027630     libucrt:_file.obj
 0002:0000a630       $unwind$?scan_optional_field_width@?$format_string_parser@D@__crt_stdio_input@@AEAA_NXZ 0000000140027630     libucrt:input.obj
 0002:0000a630       $unwind$_malloc_base       0000000140027630     libucrt:malloc_base.obj
 0002:0000a630       $unwind$_clrfp             0000000140027630     libucrt:fpctrl.obj
 0002:0000a630       $unwind$_onexit            0000000140027630     LIBCMT:utility.obj
 0002:0000a630       $unwind$fesetenv           0000000140027630     libucrt:fesetenv.obj
 0002:0000a630       $unwind$__scrt_release_startup_lock 0000000140027630     LIBCMT:utility.obj
 0002:0000a630       $unwind$??0?$output_processor@DV?$stream_output_adapter@D@__crt_stdio_output@@V?$standard_base@DV?$stream_output_adapter@D@__crt_stdio_output@@@2@@__crt_stdio_output@@QEAA@AEBV?$stream_output_adapter@D@1@_KQEBDQEAU__crt_locale_pointers@@QEAD@Z 0000000140027630     libucrt:output.obj
 0002:0000a630       $unwind$__acrt_update_locale_info 0000000140027630     libucrt:locale_update.obj
 0002:0000a630       $unwind$_clearfp           0000000140027630     libucrt:ieee.obj
 0002:0000a630       $unwind$?state_case_normal@?$output_processor@DV?$string_output_adapter@D@__crt_stdio_output@@V?$standard_base@DV?$string_output_adapter@D@__crt_stdio_output@@@2@@__crt_stdio_output@@AEAA_NXZ 0000000140027630     libucrt:output.obj
 0002:0000a630       $unwind$fegetenv           0000000140027630     libucrt:fegetenv.obj
 0002:0000a630       $unwind$feholdexcept       0000000140027630     libucrt:feholdexcept.obj
 0002:0000a630       $unwind$??$common_get_or_create_environment_nolock@D@@YAPEAPEADXZ 0000000140027630     libucrt:environment_initialization.obj
 0002:0000a630       $unwind$_fflush_nolock     0000000140027630     libucrt:fflush.obj
 0002:0000a630       $unwind$__acrt_stdio_allocate_buffer_nolock 0000000140027630     libucrt:_getbuf.obj
 0002:0000a630       $unwind$__acrt_update_multibyte_info 0000000140027630     libucrt:locale_update.obj
 0002:0000a630       $unwind$__acrt_initialize_locks 0000000140027630     libucrt:locks.obj
 0002:0000a630       $unwind$__acrt_stdio_free_buffer_nolock 0000000140027630     libucrt:_freebuf.obj
 0002:0000a630       $unwind$??0?$output_processor@DV?$string_output_adapter@D@__crt_stdio_output@@V?$standard_base@DV?$string_output_adapter@D@__crt_stdio_output@@@2@@__crt_stdio_output@@QEAA@AEBV?$string_output_adapter@D@1@_KQEBDQEAU__crt_locale_pointers@@QEAD@Z 0000000140027630     libucrt:output.obj
 0002:0000a638       $unwind$common_control87   0000000140027638     libucrt:ieee.obj
 0002:0000a668       $xdatasym                  0000000140027668     libucrt:fpsr.obj
 0002:0000a670       $unwind$??$parse_floating_point_possible_nan_is_snan@DV?$input_adapter_character_source@V?$stream_input_adapter@D@__crt_stdio_input@@@__crt_strtox@@@__crt_strtox@@YA_NAEADAEAV?$input_adapter_character_source@V?$stream_input_adapter@D@__crt_stdio_input@@@0@@Z 0000000140027670     libucrt:input.obj
 0002:0000a670       $unwind$??$parse_floating_point_possible_nan_is_ind@DV?$input_adapter_character_source@V?$stream_input_adapter@D@__crt_stdio_input@@@__crt_strtox@@@__crt_strtox@@YA_NAEADAEAV?$input_adapter_character_source@V?$stream_input_adapter@D@__crt_stdio_input@@@0@@Z 0000000140027670     libucrt:input.obj
 0002:0000a670       $unwind$?write_string@?$stream_output_adapter@D@__crt_stdio_output@@QEBAXQEBDHQEAH1@Z 0000000140027670     libucrt:output.obj
 0002:0000a670       $unwind$_chsize_nolock     0000000140027670     libucrt:chsize.obj
 0002:0000a688       $unwind$__acrt_CompareStringA 0000000140027688     libucrt:comparestringa.obj
 0002:0000a698       $unwind$?InternalCompareStringA@@YAHPEAU__crt_locale_pointers@@PEB_WKPEBDH2HH@Z 0000000140027698     libucrt:comparestringa.obj
 0002:0000a6bc       $unwind$_raise_exc         00000001400276bc     libucrt:fpexcept.obj
 0002:0000a6bc       $unwind$__dcrt_lowio_initialize_console_output 00000001400276bc     libucrt:initcon.obj
 0002:0000a6c4       $unwind$_call_matherr      00000001400276c4     libucrt:libm_error.obj
 0002:0000a6cc       $unwind$_handle_error      00000001400276cc     libucrt:libm_error.obj
 0002:0000a6ec       $unwind$__acrt_initialize_fma3 00000001400276ec     libucrt:fma3_available.obj
 0002:0000a6f4       $unwind$_log_special_common 00000001400276f4     libucrt:log_special.obj
 0002:0000a700       $unwind$_ctrlfp            0000000140027700     libucrt:fpctrl.obj
 0002:0000a728       $unwind$_IsNonwritableInCurrentImage 0000000140027728     LIBCMT:pesect.obj
 0002:0000a74c       $unwind$__GSHandlerCheckCommon 000000014002774c     LIBCMT:_gshandler_.obj
 0002:0000a758       $xdatasym                  0000000140027758     LIBCMT:_chkstk_.obj
 0002:0000a760       $xdatasym                  0000000140027760     libvcruntime:memcpy.obj
 0002:0000a768       $xdatasym                  0000000140027768     libvcruntime:memcmp.obj
 0002:0000a76c       $unwind$strchr             000000014002776c     libvcruntime:strchr.obj
 0002:0000a76c       $unwind$strrchr            000000014002776c     libvcruntime:strrchr.obj
 0002:0000a778       $xdatasym                  0000000140027778     libucrt:log.obj
 0002:0000a784       $unwind$sqrt               0000000140027784     libucrt:sqrt.obj
 0002:0000a9f0       .idata$6                   00000001400279f0     kernel32:KERNEL32.dll
 0003:00000030       ?__vcrt_flsindex@@3KA      0000000140028030     libvcruntime:per_thread_data.obj
 0003:0000014c       errno_no_memory            000000014002814c     libucrt:errno.obj
 0003:00000150       doserrno_no_memory         0000000140028150     libucrt:errno.obj
 0003:000001a0       __acrt_flsindex            00000001400281a0     libucrt:per_thread_data.obj
 0003:00000550       __rgctypeflag              0000000140028550     libucrt:mbctype.obj
 0003:00000560       __rgcode_page_info         0000000140028560     libucrt:mbctype.obj
 0003:00000a10       ?dazSupported@?1??common_control87@@9@9 0000000140028a10     libucrt:ieee.obj
 0003:00000a30       ?dazSupported@?1??_ctrlfp@@9@9 0000000140028a30     libucrt:fpctrl.obj
 0003:00000a40       GS_ExceptionRecord         0000000140028a40     LIBCMT:gs_report.obj
 0003:00000ae0       GS_ContextRecord           0000000140028ae0     LIBCMT:gs_report.obj
 0003:00000fc0       ?module_local_atexit_table@@3U_onexit_table_t@@A 0000000140028fc0     LIBCMT:utility.obj
 0003:00000fd8       ?module_local_at_quick_exit_table@@3U_onexit_table_t@@A 0000000140028fd8     LIBCMT:utility.obj
 0003:00000ff0       ?is_initialized_as_dll@@3_NA 0000000140028ff0     LIBCMT:utility.obj
 0003:00001020       ?__vcrt_startup_thread_ptd@@3U__vcrt_ptd@@A 0000000140029020     libvcruntime:per_thread_data.obj
 0003:00001098       __vcrt_lock_table          0000000140029098     libvcruntime:locks.obj
 0003:000010c0       __vcrt_locks_initialized   00000001400290c0     libvcruntime:locks.obj
 0003:000010d0       ?module_handles@@3PAPEAUHINSTANCE__@@A 00000001400290d0     libvcruntime:winapi_downlevel.obj
 0003:000010f0       ?encoded_function_pointers@@3PAPEAXA 00000001400290f0     libvcruntime:winapi_downlevel.obj
 0003:00001188       ?heap@@3V_HeapManager@@A   0000000140029188     libvcruntime:undname.obj
 0003:000011c4       __acrt_app_type            00000001400291c4     libucrt:report_runtime_error.obj
 0003:000011c8       user_matherr               00000001400291c8     libucrt:matherr.obj
 0003:000011d0       ?program_name@?5???$common_configure_argv@D@@YAHW4_crt_argv_mode@@@Z@4PADA 00000001400291d0     libucrt:argv_parsing.obj
 0003:000012f8       c_termination_complete     00000001400292f8     libucrt:exit.obj
 0003:00001300       thread_local_exit_callback_func 0000000140029300     libucrt:exit.obj
 0003:00001308       ?c_exit_complete@?5??common_exit@@YAXHW4_crt_exit_cleanup_mode@@W4_crt_exit_return_mode@@@Z@4_NA 0000000140029308     libucrt:exit.obj
 0003:0000133c       __acrt_global_new_mode     000000014002933c     libucrt:new_mode.obj
 0003:00001378       __acrt_invalid_parameter_handler 0000000140029378     libucrt:invalid_parameter.obj
 0003:00001380       module_handles             0000000140029380     libucrt:winapi_thunks.obj
 0003:00001420       encoded_function_pointers  0000000140029420     libucrt:winapi_thunks.obj
 0003:00001520       ?state_cache@?1??__acrt_is_packaged_app@@9@4JA 0000000140029520     libucrt:winapi_thunks.obj
 0003:00001938       enable_percent_n           0000000140029938     libucrt:printf_count_output.obj
 0003:0000196c       fSystemSet                 000000014002996c     libucrt:mbctype.obj
 0003:00001978       ?initialized@?1??__acrt_initialize_multibyte@@9@4_NA 0000000140029978     libucrt:mbctype.obj
 0003:00001980       __acrt_lock_table          0000000140029980     libucrt:locks.obj
 0003:00001b88       __acrt_locks_initialized   0000000140029b88     libucrt:locks.obj
 0003:00001ba0       __acrt_new_handler         0000000140029ba0     libucrt:new_handler.obj
 0003:00001ba8       ctrlc_action               0000000140029ba8     libucrt:signal.obj
 0003:00001bb0       ctrlbreak_action           0000000140029bb0     libucrt:signal.obj
 0003:00001bb8       abort_action               0000000140029bb8     libucrt:signal.obj
 0003:00001bc0       term_action                0000000140029bc0     libucrt:signal.obj
 0004:00000000       $pdata$fprintf             000000014002a000     prime_sieve.obj
 0004:0000000c       $pdata$sprintf             000000014002a00c     prime_sieve.obj
 0004:00000018       $pdata$sscanf              000000014002a018     prime_sieve.obj
 0004:00000024       $pdata$generate_args       000000014002a024     prime_sieve.obj
 0004:00000030       $pdata$0$generate_args     000000014002a030     prime_sieve.obj
 0004:0000003c       $pdata$1$generate_args     000000014002a03c     prime_sieve.obj
 0004:00000048       $pdata$2$generate_args     000000014002a048     prime_sieve.obj
 0004:00000054       $pdata$3$generate_args     000000014002a054     prime_sieve.obj
 0004:00000060       $pdata$fscanf              000000014002a060     main.obj
 0004:0000006c       $pdata$main                000000014002a06c     main.obj
 0004:00000084       $pdata$?pre_c_initialization@@YAHXZ 000000014002a084     LIBCMT:exe_main.obj
 0004:00000090       $pdata$?post_pgo_initialization@@YAHXZ 000000014002a090     LIBCMT:exe_main.obj
 0004:0000009c       $pdata$?pre_cpp_initialization@@YAXXZ 000000014002a09c     LIBCMT:exe_main.obj
 0004:000000a8       $pdata$?__scrt_common_main_seh@@YAHXZ 000000014002a0a8     LIBCMT:exe_main.obj
 0004:000000b4       $pdata$mainCRTStartup      000000014002a0b4     LIBCMT:exe_main.obj
 0004:000000c0       $pdata$__raise_securityfailure 000000014002a0c0     LIBCMT:gs_report.obj
 0004:000000cc       $pdata$__report_gsfailure  000000014002a0cc     LIBCMT:gs_report.obj
 0004:000000d8       $pdata$__report_rangecheckfailure 000000014002a0d8     LIBCMT:gs_report.obj
 0004:000000e4       $pdata$__report_securityfailure 000000014002a0e4     LIBCMT:gs_report.obj
 0004:000000f0       $pdata$capture_current_context 000000014002a0f0     LIBCMT:gs_report.obj
 0004:000000fc       $pdata$capture_previous_context 000000014002a0fc     LIBCMT:gs_report.obj
 0004:00000108       $pdata$__scrt_acquire_startup_lock 000000014002a108     LIBCMT:utility.obj
 0004:00000114       $pdata$__scrt_initialize_crt 000000014002a114     LIBCMT:utility.obj
 0004:00000120       $pdata$__scrt_initialize_onexit_tables 000000014002a120     LIBCMT:utility.obj
 0004:0000012c       $pdata$__scrt_is_nonwritable_in_current_image 000000014002a12c     LIBCMT:utility.obj
 0004:00000138       $pdata$__scrt_release_startup_lock 000000014002a138     LIBCMT:utility.obj
 0004:00000144       $pdata$__scrt_uninitialize_crt 000000014002a144     LIBCMT:utility.obj
 0004:00000150       $pdata$_onexit             000000014002a150     LIBCMT:utility.obj
 0004:0000015c       $pdata$atexit              000000014002a15c     LIBCMT:utility.obj
 0004:00000168       $pdata$__security_init_cookie 000000014002a168     LIBCMT:gs_support.obj
 0004:00000174       $pdata$__scrt_initialize_default_local_stdio_options 000000014002a174     LIBCMT:default_local_stdio_options.obj
 0004:00000180       $pdata$__scrt_fastfail     000000014002a180     LIBCMT:utility_desktop.obj
 0004:0000018c       $pdata$__scrt_is_managed_app 000000014002a18c     LIBCMT:utility_desktop.obj
 0004:00000198       $pdata$__scrt_unhandled_exception_filter 000000014002a198     LIBCMT:utility_desktop.obj
 0004:000001a4       $pdata$_RTC_Initialize     000000014002a1a4     LIBCMT:_initsect_.obj
 0004:000001b0       $pdata$_RTC_Terminate      000000014002a1b0     LIBCMT:_initsect_.obj
 0004:000001bc       $pdata$__isa_available_init 000000014002a1bc     LIBCMT:_cpu_disp_.obj
 0004:000001c8       $pdata$__C_specific_handler 000000014002a1c8     libvcruntime:_chandler_.obj
 0004:000001d4       $pdata$__vcrt_initialize   000000014002a1d4     libvcruntime:initialization.obj
 0004:000001e0       $pdata$__vcrt_uninitialize 000000014002a1e0     libvcruntime:initialization.obj
 0004:00000228       $pdata$__vcrt_freefls      000000014002a228     libvcruntime:per_thread_data.obj
 0004:00000234       $pdata$__vcrt_initialize_ptd 000000014002a234     libvcruntime:per_thread_data.obj
 0004:00000240       $pdata$__vcrt_uninitialize_ptd 000000014002a240     libvcruntime:per_thread_data.obj
 0004:0000024c       $pdata$__vcrt_initialize_locks 000000014002a24c     libvcruntime:locks.obj
 0004:00000258       $pdata$__vcrt_uninitialize_locks 000000014002a258     libvcruntime:locks.obj
 0004:00000264       $pdata$?try_get_function@@YAPEAXW4function_id@?A0x679b24ab@@QEBDQEBW4module_id@2@2@Z 000000014002a264     libvcruntime:winapi_downlevel.obj
 0004:00000270       $pdata$__vcrt_FlsAlloc     000000014002a270     libvcruntime:winapi_downlevel.obj
 0004:0000027c       $pdata$__vcrt_FlsFree      000000014002a27c     libvcruntime:winapi_downlevel.obj
 0004:00000288       $pdata$__vcrt_FlsSetValue  000000014002a288     libvcruntime:winapi_downlevel.obj
 0004:00000294       $pdata$__vcrt_InitializeCriticalSectionEx 000000014002a294     libvcruntime:winapi_downlevel.obj
 0004:000002a0       $pdata$__vcrt_uninitialize_winapi_thunks 000000014002a2a0     libvcruntime:winapi_downlevel.obj
 0004:000002ac       $pdata$__acrt_initialize_stdio 000000014002a2ac     libucrt:_file.obj
 0004:000002b8       $pdata$__acrt_uninitialize_stdio 000000014002a2b8     libucrt:_file.obj
 0004:000002c4       $pdata$??$?RV<lambda_aa279a7bcb127014629d5b1d62c7325d>@@AEAV<lambda_0a64b6a4deda75c01876f29c44fc5eb3>@@V<lambda_3323e69fbefe9d1a11713e670d47cdfa>@@@?$__crt_seh_guarded_call@H@@QEAAH$$QEAV<lambda_aa279a7bcb127014629d5b1d62c7325d>@@AEAV<lambda_0a64b6a4deda75c01876f29c44fc5eb3>@@$$QEAV<lambda_3323e69fbefe9d1a11713e670d47cdfa>@@@Z 000000014002a2c4     libucrt:output.obj
 0004:000002d0       $pdata$??$ensure_buffer_is_big_enough@D@formatting_buffer@__crt_stdio_output@@QEAA_N_K@Z 000000014002a2d0     libucrt:output.obj
 0004:000002dc       $pdata$??$type_case_integer_parse_into_buffer@I@?$output_processor@DV?$stream_output_adapter@D@__crt_stdio_output@@V?$standard_base@DV?$stream_output_adapter@D@__crt_stdio_output@@@2@@__crt_stdio_output@@AEAAXII_N@Z 000000014002a2dc     libucrt:output.obj
 0004:000002dc       $pdata$??$type_case_integer_parse_into_buffer@I@?$output_processor@DV?$string_output_adapter@D@__crt_stdio_output@@V?$standard_base@DV?$string_output_adapter@D@__crt_stdio_output@@@2@@__crt_stdio_output@@AEAAXII_N@Z 000000014002a2dc     libucrt:output.obj
 0004:000002e8       $pdata$??$type_case_integer_parse_into_buffer@_K@?$output_processor@DV?$stream_output_adapter@D@__crt_stdio_output@@V?$standard_base@DV?$stream_output_adapter@D@__crt_stdio_output@@@2@@__crt_stdio_output@@AEAAX_KI_N@Z 000000014002a2e8     libucrt:output.obj
 0004:000002e8       $pdata$??$type_case_integer_parse_into_buffer@_K@?$output_processor@DV?$string_output_adapter@D@__crt_stdio_output@@V?$standard_base@DV?$string_output_adapter@D@__crt_stdio_output@@@2@@__crt_stdio_output@@AEAAX_KI_N@Z 000000014002a2e8     libucrt:output.obj
 0004:000002f4       $pdata$??$write_multiple_characters@V?$stream_output_adapter@D@__crt_stdio_output@@D@__crt_stdio_output@@YAXAEBV?$stream_output_adapter@D@0@DHQEAH@Z 000000014002a2f4     libucrt:output.obj
 0004:00000300       $pdata$??$write_multiple_characters@V?$string_output_adapter@D@__crt_stdio_output@@D@__crt_stdio_output@@YAXAEBV?$string_output_adapter@D@0@DHQEAH@Z 000000014002a300     libucrt:output.obj
 0004:0000030c       $pdata$??0?$output_processor@DV?$string_output_adapter@D@__crt_stdio_output@@V?$standard_base@DV?$string_output_adapter@D@__crt_stdio_output@@@2@@__crt_stdio_output@@QEAA@AEBV?$string_output_adapter@D@1@_KQEBDQEAU__crt_locale_pointers@@QEAD@Z 000000014002a30c     libucrt:output.obj
 0004:0000030c       $pdata$??0?$output_processor@DV?$stream_output_adapter@D@__crt_stdio_output@@V?$standard_base@DV?$stream_output_adapter@D@__crt_stdio_output@@@2@@__crt_stdio_output@@QEAA@AEBV?$stream_output_adapter@D@1@_KQEBDQEAU__crt_locale_pointers@@QEAD@Z 000000014002a30c     libucrt:output.obj
 0004:00000318       $pdata$??0_LocaleUpdate@@QEAA@QEAU__crt_locale_pointers@@@Z 000000014002a318     libucrt:output.obj
 0004:00000324       $pdata$??R<lambda_0a64b6a4deda75c01876f29c44fc5eb3>@@QEBAHXZ 000000014002a324     libucrt:output.obj
 0004:00000330       $pdata$?force_decimal_point@__crt_stdio_output@@YAXPEADQEAU__crt_locale_pointers@@@Z 000000014002a330     libucrt:output.obj
 0004:0000033c       $pdata$?parse_int_from_format_string@?$output_processor@DV?$string_output_adapter@D@__crt_stdio_output@@V?$standard_base@DV?$string_output_adapter@D@__crt_stdio_output@@@2@@__crt_stdio_output@@AEAA_NQEAH@Z 000000014002a33c     libucrt:output.obj
 0004:0000033c       $pdata$?parse_int_from_format_string@?$output_processor@DV?$stream_output_adapter@D@__crt_stdio_output@@V?$standard_base@DV?$stream_output_adapter@D@__crt_stdio_output@@@2@@__crt_stdio_output@@AEAA_NQEAH@Z 000000014002a33c     libucrt:output.obj
 0004:00000348       $pdata$?process@?$output_processor@DV?$stream_output_adapter@D@__crt_stdio_output@@V?$standard_base@DV?$stream_output_adapter@D@__crt_stdio_output@@@2@@__crt_stdio_output@@QEAAHXZ 000000014002a348     libucrt:output.obj
 0004:00000354       $pdata$?process@?$output_processor@DV?$string_output_adapter@D@__crt_stdio_output@@V?$standard_base@DV?$string_output_adapter@D@__crt_stdio_output@@@2@@__crt_stdio_output@@QEAAHXZ 000000014002a354     libucrt:output.obj
 0004:00000360       $pdata$?state_case_normal@?$output_processor@DV?$stream_output_adapter@D@__crt_stdio_output@@V?$standard_base@DV?$stream_output_adapter@D@__crt_stdio_output@@@2@@__crt_stdio_output@@AEAA_NXZ 000000014002a360     libucrt:output.obj
 0004:0000036c       $pdata$?state_case_normal@?$output_processor@DV?$string_output_adapter@D@__crt_stdio_output@@V?$standard_base@DV?$string_output_adapter@D@__crt_stdio_output@@@2@@__crt_stdio_output@@AEAA_NXZ 000000014002a36c     libucrt:output.obj
 0004:00000378       $pdata$?state_case_normal_tchar@?$output_processor@DV?$stream_output_adapter@D@__crt_stdio_output@@V?$standard_base@DV?$stream_output_adapter@D@__crt_stdio_output@@@2@@__crt_stdio_output@@AEAA_ND@Z 000000014002a378     libucrt:output.obj
 0004:00000384       $pdata$?state_case_normal_tchar@?$output_processor@DV?$string_output_adapter@D@__crt_stdio_output@@V?$standard_base@DV?$string_output_adapter@D@__crt_stdio_output@@@2@@__crt_stdio_output@@AEAA_ND@Z 000000014002a384     libucrt:output.obj
 0004:00000390       $pdata$?state_case_size@?$output_processor@DV?$stream_output_adapter@D@__crt_stdio_output@@V?$standard_base@DV?$stream_output_adapter@D@__crt_stdio_output@@@2@@__crt_stdio_output@@AEAA_NXZ 000000014002a390     libucrt:output.obj
 0004:0000039c       $pdata$?state_case_size@?$output_processor@DV?$string_output_adapter@D@__crt_stdio_output@@V?$standard_base@DV?$string_output_adapter@D@__crt_stdio_output@@@2@@__crt_stdio_output@@AEAA_NXZ 000000014002a39c     libucrt:output.obj
 0004:000003a8       $pdata$?state_case_type@?$output_processor@DV?$stream_output_adapter@D@__crt_stdio_output@@V?$standard_base@DV?$stream_output_adapter@D@__crt_stdio_output@@@2@@__crt_stdio_output@@AEAA_NXZ 000000014002a3a8     libucrt:output.obj
 0004:000003b4       $pdata$?state_case_type@?$output_processor@DV?$string_output_adapter@D@__crt_stdio_output@@V?$standard_base@DV?$string_output_adapter@D@__crt_stdio_output@@@2@@__crt_stdio_output@@AEAA_NXZ 000000014002a3b4     libucrt:output.obj
 0004:000003c0       $pdata$?type_case_Z@?$output_processor@DV?$stream_output_adapter@D@__crt_stdio_output@@V?$standard_base@DV?$stream_output_adapter@D@__crt_stdio_output@@@2@@__crt_stdio_output@@AEAA_NXZ 000000014002a3c0     libucrt:output.obj
 0004:000003c0       $pdata$?type_case_Z@?$output_processor@DV?$string_output_adapter@D@__crt_stdio_output@@V?$standard_base@DV?$string_output_adapter@D@__crt_stdio_output@@@2@@__crt_stdio_output@@AEAA_NXZ 000000014002a3c0     libucrt:output.obj
 0004:000003cc       $pdata$?type_case_a@?$output_processor@DV?$stream_output_adapter@D@__crt_stdio_output@@V?$standard_base@DV?$stream_output_adapter@D@__crt_stdio_output@@@2@@__crt_stdio_output@@AEAA_NXZ 000000014002a3cc     libucrt:output.obj
 0004:000003cc       $pdata$?type_case_a@?$output_processor@DV?$string_output_adapter@D@__crt_stdio_output@@V?$standard_base@DV?$string_output_adapter@D@__crt_stdio_output@@@2@@__crt_stdio_output@@AEAA_NXZ 000000014002a3cc     libucrt:output.obj
 0004:000003d8       $pdata$?type_case_c_tchar@?$output_processor@DV?$stream_output_adapter@D@__crt_stdio_output@@V?$standard_base@DV?$stream_output_adapter@D@__crt_stdio_output@@@2@@__crt_stdio_output@@AEAA_ND@Z 000000014002a3d8     libucrt:output.obj
 0004:000003d8       $pdata$?type_case_c_tchar@?$output_processor@DV?$string_output_adapter@D@__crt_stdio_output@@V?$standard_base@DV?$string_output_adapter@D@__crt_stdio_output@@@2@@__crt_stdio_output@@AEAA_ND@Z 000000014002a3d8     libucrt:output.obj
 0004:000003e4       $pdata$?type_case_integer@?$output_processor@DV?$string_output_adapter@D@__crt_stdio_output@@V?$standard_base@DV?$string_output_adapter@D@__crt_stdio_output@@@2@@__crt_stdio_output@@AEAA_NI_N@Z 000000014002a3e4     libucrt:output.obj
 0004:000003e4       $pdata$?type_case_integer@?$output_processor@DV?$stream_output_adapter@D@__crt_stdio_output@@V?$standard_base@DV?$stream_output_adapter@D@__crt_stdio_output@@@2@@__crt_stdio_output@@AEAA_NI_N@Z 000000014002a3e4     libucrt:output.obj
 0004:000003f0       $pdata$?type_case_n@?$output_processor@DV?$stream_output_adapter@D@__crt_stdio_output@@V?$standard_base@DV?$stream_output_adapter@D@__crt_stdio_output@@@2@@__crt_stdio_output@@AEAA_NXZ 000000014002a3f0     libucrt:output.obj
 0004:000003f0       $pdata$?type_case_n@?$output_processor@DV?$string_output_adapter@D@__crt_stdio_output@@V?$standard_base@DV?$string_output_adapter@D@__crt_stdio_output@@@2@@__crt_stdio_output@@AEAA_NXZ 000000014002a3f0     libucrt:output.obj
 0004:000003fc       $pdata$?type_case_s@?$output_processor@DV?$string_output_adapter@D@__crt_stdio_output@@V?$standard_base@DV?$string_output_adapter@D@__crt_stdio_output@@@2@@__crt_stdio_output@@AEAA_NXZ 000000014002a3fc     libucrt:output.obj
 0004:000003fc       $pdata$?type_case_s@?$output_processor@DV?$stream_output_adapter@D@__crt_stdio_output@@V?$standard_base@DV?$stream_output_adapter@D@__crt_stdio_output@@@2@@__crt_stdio_output@@AEAA_NXZ 000000014002a3fc     libucrt:output.obj
 0004:00000408       $pdata$?validate_stream_is_ansi_if_required@?$__acrt_stdio_char_traits@D@@SA_NQEAU_iobuf@@@Z 000000014002a408     libucrt:output.obj
 0004:00000414       $pdata$?write_stored_string_tchar@?$output_processor@DV?$stream_output_adapter@D@__crt_stdio_output@@V?$standard_base@DV?$stream_output_adapter@D@__crt_stdio_output@@@2@@__crt_stdio_output@@AEAA_ND@Z 000000014002a414     libucrt:output.obj
 0004:00000420       $pdata$?write_stored_string_tchar@?$output_processor@DV?$string_output_adapter@D@__crt_stdio_output@@V?$standard_base@DV?$string_output_adapter@D@__crt_stdio_output@@@2@@__crt_stdio_output@@AEAA_ND@Z 000000014002a420     libucrt:output.obj
 0004:0000042c       $pdata$?write_string@?$stream_output_adapter@D@__crt_stdio_output@@QEBAXQEBDHQEAH1@Z 000000014002a42c     libucrt:output.obj
 0004:00000438       $pdata$?write_string@?$string_output_adapter@D@__crt_stdio_output@@QEBAXQEBDHQEAH1@Z 000000014002a438     libucrt:output.obj
 0004:00000444       $pdata$__stdio_common_vfprintf 000000014002a444     libucrt:output.obj
 0004:00000450       $pdata$__stdio_common_vsprintf 000000014002a450     libucrt:output.obj
 0004:0000045c       $pdata$??$?RV<lambda_c01e8233c1997d6cc4b8f1fd672e07e5>@@AEAV<lambda_3a6204444a8bad05601fdaf7664f6f17>@@V<lambda_b6ae1896c9cebd71befa8310523e5efb>@@@?$__crt_seh_guarded_call@H@@QEAAH$$QEAV<lambda_c01e8233c1997d6cc4b8f1fd672e07e5>@@AEAV<lambda_3a6204444a8bad05601fdaf7664f6f17>@@$$QEAV<lambda_b6ae1896c9cebd71befa8310523e5efb>@@@Z 000000014002a45c     libucrt:input.obj
 0004:00000468       $pdata$??$parse_floating_point@V?$input_adapter_character_source@V?$stream_input_adapter@D@__crt_stdio_input@@@__crt_strtox@@M@__crt_strtox@@YA?AW4SLD_STATUS@@QEAU__crt_locale_pointers@@V?$input_adapter_character_source@V?$stream_input_adapter@D@__crt_stdio_input@@@0@QEAM@Z 000000014002a468     libucrt:input.obj
 0004:00000474       $pdata$??$parse_floating_point@V?$input_adapter_character_source@V?$stream_input_adapter@D@__crt_stdio_input@@@__crt_strtox@@N@__crt_strtox@@YA?AW4SLD_STATUS@@QEAU__crt_locale_pointers@@V?$input_adapter_character_source@V?$stream_input_adapter@D@__crt_stdio_input@@@0@QEAN@Z 000000014002a474     libucrt:input.obj
 0004:00000480       $pdata$??$parse_floating_point@V?$input_adapter_character_source@V?$string_input_adapter@D@__crt_stdio_input@@@__crt_strtox@@M@__crt_strtox@@YA?AW4SLD_STATUS@@QEAU__crt_locale_pointers@@V?$input_adapter_character_source@V?$string_input_adapter@D@__crt_stdio_input@@@0@QEAM@Z 000000014002a480     libucrt:input.obj
 0004:0000048c       $pdata$??$parse_floating_point@V?$input_adapter_character_source@V?$string_input_adapter@D@__crt_stdio_input@@@__crt_strtox@@N@__crt_strtox@@YA?AW4SLD_STATUS@@QEAU__crt_locale_pointers@@V?$input_adapter_character_source@V?$string_input_adapter@D@__crt_stdio_input@@@0@QEAN@Z 000000014002a48c     libucrt:input.obj
 0004:00000498       $pdata$??$parse_floating_point_from_source@V?$input_adapter_character_source@V?$stream_input_adapter@D@__crt_stdio_input@@@__crt_strtox@@@__crt_strtox@@YA?AW4floating_point_parse_result@0@QEAU__crt_locale_pointers@@AEAV?$input_adapter_character_source@V?$stream_input_adapter@D@__crt_stdio_input@@@0@AEAUfloating_point_string@0@@Z 000000014002a498     libucrt:input.obj
 0004:000004a4       $pdata$??$parse_floating_point_from_source@V?$input_adapter_character_source@V?$string_input_adapter@D@__crt_stdio_input@@@__crt_strtox@@@__crt_strtox@@YA?AW4floating_point_parse_result@0@QEAU__crt_locale_pointers@@AEAV?$input_adapter_character_source@V?$string_input_adapter@D@__crt_stdio_input@@@0@AEAUfloating_point_string@0@@Z 000000014002a4a4     libucrt:input.obj
 0004:000004b0       $pdata$??$parse_floating_point_possible_infinity@DV?$input_adapter_character_source@V?$stream_input_adapter@D@__crt_stdio_input@@@__crt_strtox@@_K@__crt_strtox@@YA?AW4floating_point_parse_result@0@AEADAEAV?$input_adapter_character_source@V?$stream_input_adapter@D@__crt_stdio_input@@@0@_K@Z 000000014002a4b0     libucrt:input.obj
 0004:000004bc       $pdata$??$parse_floating_point_possible_infinity@DV?$input_adapter_character_source@V?$string_input_adapter@D@__crt_stdio_input@@@__crt_strtox@@_K@__crt_strtox@@YA?AW4floating_point_parse_result@0@AEADAEAV?$input_adapter_character_source@V?$string_input_adapter@D@__crt_stdio_input@@@0@_K@Z 000000014002a4bc     libucrt:input.obj
 0004:000004c8       $pdata$??$parse_floating_point_possible_nan@DV?$input_adapter_character_source@V?$stream_input_adapter@D@__crt_stdio_input@@@__crt_strtox@@_K@__crt_strtox@@YA?AW4floating_point_parse_result@0@AEADAEAV?$input_adapter_character_source@V?$stream_input_adapter@D@__crt_stdio_input@@@0@_K@Z 000000014002a4c8     libucrt:input.obj
 0004:000004d4       $pdata$??$parse_floating_point_possible_nan@DV?$input_adapter_character_source@V?$string_input_adapter@D@__crt_stdio_input@@@__crt_strtox@@_K@__crt_strtox@@YA?AW4floating_point_parse_result@0@AEADAEAV?$input_adapter_character_source@V?$string_input_adapter@D@__crt_stdio_input@@@0@_K@Z 000000014002a4d4     libucrt:input.obj
 0004:000004e0       $pdata$??$parse_floating_point_possible_nan_is_ind@DV?$input_adapter_character_source@V?$stream_input_adapter@D@__crt_stdio_input@@@__crt_strtox@@@__crt_strtox@@YA_NAEADAEAV?$input_adapter_character_source@V?$stream_input_adapter@D@__crt_stdio_input@@@0@@Z 000000014002a4e0     libucrt:input.obj
 0004:000004ec       $pdata$??$parse_floating_point_possible_nan_is_ind@DV?$input_adapter_character_source@V?$string_input_adapter@D@__crt_stdio_input@@@__crt_strtox@@@__crt_strtox@@YA_NAEADAEAV?$input_adapter_character_source@V?$string_input_adapter@D@__crt_stdio_input@@@0@@Z 000000014002a4ec     libucrt:input.obj
 0004:000004f8       $pdata$??$parse_floating_point_possible_nan_is_snan@DV?$input_adapter_character_source@V?$stream_input_adapter@D@__crt_stdio_input@@@__crt_strtox@@@__crt_strtox@@YA_NAEADAEAV?$input_adapter_character_source@V?$stream_input_adapter@D@__crt_stdio_input@@@0@@Z 000000014002a4f8     libucrt:input.obj
 0004:00000504       $pdata$??$parse_floating_point_possible_nan_is_snan@DV?$input_adapter_character_source@V?$string_input_adapter@D@__crt_stdio_input@@@__crt_strtox@@@__crt_strtox@@YA_NAEADAEAV?$input_adapter_character_source@V?$string_input_adapter@D@__crt_stdio_input@@@0@@Z 000000014002a504     libucrt:input.obj
 0004:00000510       $pdata$??$parse_floating_point_write_result@M@__crt_strtox@@YA?AW4SLD_STATUS@@W4floating_point_parse_result@0@AEBUfloating_point_string@0@QEAM@Z 000000014002a510     libucrt:input.obj
 0004:0000051c       $pdata$??$parse_floating_point_write_result@N@__crt_strtox@@YA?AW4SLD_STATUS@@W4floating_point_parse_result@0@AEBUfloating_point_string@0@QEAN@Z 000000014002a51c     libucrt:input.obj
 0004:00000528       $pdata$??$parse_integer@_KV?$input_adapter_character_source@V?$stream_input_adapter@D@__crt_stdio_input@@@__crt_strtox@@@__crt_strtox@@YA_KQEAU__crt_locale_pointers@@V?$input_adapter_character_source@V?$stream_input_adapter@D@__crt_stdio_input@@@0@H_N@Z 000000014002a528     libucrt:input.obj
 0004:00000534       $pdata$??$parse_integer@_KV?$input_adapter_character_source@V?$string_input_adapter@D@__crt_stdio_input@@@__crt_strtox@@@__crt_strtox@@YA_KQEAU__crt_locale_pointers@@V?$input_adapter_character_source@V?$string_input_adapter@D@__crt_stdio_input@@@0@H_N@Z 000000014002a534     libucrt:input.obj
 0004:00000540       $pdata$??$process_floating_point_specifier_t@M@?$input_processor@DV?$stream_input_adapter@D@__crt_stdio_input@@@__crt_stdio_input@@AEAA_NXZ 000000014002a540     libucrt:input.obj
 0004:0000054c       $pdata$??$process_floating_point_specifier_t@M@?$input_processor@DV?$string_input_adapter@D@__crt_stdio_input@@@__crt_stdio_input@@AEAA_NXZ 000000014002a54c     libucrt:input.obj
 0004:00000558       $pdata$??$process_floating_point_specifier_t@N@?$input_processor@DV?$stream_input_adapter@D@__crt_stdio_input@@@__crt_stdio_input@@AEAA_NXZ 000000014002a558     libucrt:input.obj
 0004:00000564       $pdata$??$process_floating_point_specifier_t@N@?$input_processor@DV?$string_input_adapter@D@__crt_stdio_input@@@__crt_stdio_input@@AEAA_NXZ 000000014002a564     libucrt:input.obj
 0004:00000570       $pdata$??$process_string_specifier_tchar@D@?$input_processor@DV?$stream_input_adapter@D@__crt_stdio_input@@@__crt_stdio_input@@AEAA_NW4conversion_mode@1@D@Z 000000014002a570     libucrt:input.obj
 0004:0000057c       $pdata$??$process_string_specifier_tchar@D@?$input_processor@DV?$string_input_adapter@D@__crt_stdio_input@@@__crt_stdio_input@@AEAA_NW4conversion_mode@1@D@Z 000000014002a57c     libucrt:input.obj
 0004:00000588       $pdata$??$process_string_specifier_tchar@_W@?$input_processor@DV?$stream_input_adapter@D@__crt_stdio_input@@@__crt_stdio_input@@AEAA_NW4conversion_mode@1@_W@Z 000000014002a588     libucrt:input.obj
 0004:00000594       $pdata$??$process_string_specifier_tchar@_W@?$input_processor@DV?$string_input_adapter@D@__crt_stdio_input@@@__crt_stdio_input@@AEAA_NW4conversion_mode@1@_W@Z 000000014002a594     libucrt:input.obj
 0004:000005a0       $pdata$??$skip_whitespace@Vstream_input_adapter@__crt_stdio_input@@D@__crt_stdio_input@@YAHAEAV?$stream_input_adapter@D@0@QEAU__crt_locale_pointers@@@Z 000000014002a5a0     libucrt:input.obj
 0004:000005ac       $pdata$??$skip_whitespace@Vstring_input_adapter@__crt_stdio_input@@D@__crt_stdio_input@@YAHAEAV?$string_input_adapter@D@0@QEAU__crt_locale_pointers@@@Z 000000014002a5ac     libucrt:input.obj
 0004:000005b8       $pdata$??R<lambda_3a6204444a8bad05601fdaf7664f6f17>@@QEBAHXZ 000000014002a5b8     libucrt:input.obj
 0004:000005c4       $pdata$??R<lambda_037e91eb5f7fe3a681de8d8491e423b3>@@QEBA_NXZ 000000014002a5c4     libucrt:input.obj
 0004:000005c4       $pdata$??R<lambda_b9821a569aa5955fc6d82138aaf53eb6>@@QEBA_NXZ 000000014002a5c4     libucrt:input.obj
 0004:000005c4       $pdata$??R<lambda_faed2df532bb37849f111efe98abdd75>@@QEBA_NXZ 000000014002a5c4     libucrt:input.obj
 0004:000005d0       $pdata$?advance@?$format_string_parser@D@__crt_stdio_input@@QEAA_NXZ 000000014002a5d0     libucrt:input.obj
 0004:000005dc       $pdata$?as_double@floating_point_value@__crt_strtox@@QEBAAEANXZ 000000014002a5dc     libucrt:input.obj
 0004:000005e8       $pdata$?as_float@floating_point_value@__crt_strtox@@QEBAAEAMXZ 000000014002a5e8     libucrt:input.obj
 0004:000005f4       $pdata$?assemble_floating_point_value@__crt_strtox@@YA?AW4SLD_STATUS@@_KH_N1AEBVfloating_point_value@1@@Z 000000014002a5f4     libucrt:input.obj
 0004:00000600       $pdata$?assemble_floating_point_value_from_big_integer@__crt_strtox@@YA?AW4SLD_STATUS@@AEBUbig_integer@1@I_N1AEBVfloating_point_value@1@@Z 000000014002a600     libucrt:input.obj
 0004:0000060c       $pdata$?convert_decimal_string_to_floating_type_common@__crt_strtox@@YA?AW4SLD_STATUS@@AEBUfloating_point_string@1@AEBVfloating_point_value@1@@Z 000000014002a60c     libucrt:input.obj
 0004:00000618       $pdata$?convert_hexadecimal_string_to_floating_type_common@__crt_strtox@@YA?AW4SLD_STATUS@@AEBUfloating_point_string@1@AEBVfloating_point_value@1@@Z 000000014002a618     libucrt:input.obj
 0004:00000624       $pdata$?divide@__crt_strtox@@YA_KAEAUbig_integer@1@AEBU21@@Z 000000014002a624     libucrt:input.obj
 0004:00000630       $pdata$5$?divide@__crt_strtox@@YA_KAEAUbig_integer@1@AEBU21@@Z 000000014002a630     libucrt:input.obj
 0004:0000063c       $pdata$6$?divide@__crt_strtox@@YA_KAEAUbig_integer@1@AEBU21@@Z 000000014002a63c     libucrt:input.obj
 0004:00000648       $pdata$?process@?$input_processor@DV?$stream_input_adapter@D@__crt_stdio_input@@@__crt_stdio_input@@QEAAHXZ 000000014002a648     libucrt:input.obj
 0004:00000654       $pdata$?process@?$input_processor@DV?$string_input_adapter@D@__crt_stdio_input@@@__crt_stdio_input@@QEAAHXZ 000000014002a654     libucrt:input.obj
 0004:00000660       $pdata$?process_conversion_specifier@?$input_processor@DV?$stream_input_adapter@D@__crt_stdio_input@@@__crt_stdio_input@@AEAA_NXZ 000000014002a660     libucrt:input.obj
 0004:0000066c       $pdata$?process_conversion_specifier@?$input_processor@DV?$string_input_adapter@D@__crt_stdio_input@@@__crt_stdio_input@@AEAA_NXZ 000000014002a66c     libucrt:input.obj
 0004:00000678       $pdata$?process_floating_point_specifier@?$input_processor@DV?$stream_input_adapter@D@__crt_stdio_input@@@__crt_stdio_input@@AEAA_NXZ 000000014002a678     libucrt:input.obj
 0004:00000684       $pdata$?process_floating_point_specifier@?$input_processor@DV?$string_input_adapter@D@__crt_stdio_input@@@__crt_stdio_input@@AEAA_NXZ 000000014002a684     libucrt:input.obj
 0004:00000690       $pdata$?process_integer_specifier@?$input_processor@DV?$stream_input_adapter@D@__crt_stdio_input@@@__crt_stdio_input@@AEAA_NI_N@Z 000000014002a690     libucrt:input.obj
 0004:0000069c       $pdata$?process_integer_specifier@?$input_processor@DV?$string_input_adapter@D@__crt_stdio_input@@@__crt_stdio_input@@AEAA_NI_N@Z 000000014002a69c     libucrt:input.obj
 0004:000006a8       $pdata$?process_literal_character_tchar@?$input_processor@DV?$stream_input_adapter@D@__crt_stdio_input@@@__crt_stdio_input@@AEAA_ND@Z 000000014002a6a8     libucrt:input.obj
 0004:000006b4       $pdata$?process_literal_character_tchar@?$input_processor@DV?$string_input_adapter@D@__crt_stdio_input@@@__crt_stdio_input@@AEAA_ND@Z 000000014002a6b4     libucrt:input.obj
 0004:000006c0       $pdata$?process_state@?$input_processor@DV?$stream_input_adapter@D@__crt_stdio_input@@@__crt_stdio_input@@AEAA_NXZ 000000014002a6c0     libucrt:input.obj
 0004:000006cc       $pdata$?process_state@?$input_processor@DV?$string_input_adapter@D@__crt_stdio_input@@@__crt_stdio_input@@AEAA_NXZ 000000014002a6cc     libucrt:input.obj
 0004:000006d8       $pdata$?process_string_specifier@?$input_processor@DV?$stream_input_adapter@D@__crt_stdio_input@@@__crt_stdio_input@@AEAA_NW4conversion_mode@2@@Z 000000014002a6d8     libucrt:input.obj
 0004:000006e4       $pdata$?process_string_specifier@?$input_processor@DV?$string_input_adapter@D@__crt_stdio_input@@@__crt_stdio_input@@AEAA_NW4conversion_mode@2@@Z 000000014002a6e4     libucrt:input.obj
 0004:000006f0       $pdata$?scan_optional_field_width@?$format_string_parser@D@__crt_stdio_input@@AEAA_NXZ 000000014002a6f0     libucrt:input.obj
 0004:000006fc       $pdata$?scan_scanset_range@?$format_string_parser@D@__crt_stdio_input@@AEAA_NXZ 000000014002a6fc     libucrt:input.obj
 0004:00000708       $pdata$?write_character@?$input_processor@DV?$stream_input_adapter@D@__crt_stdio_input@@@__crt_stdio_input@@AEAA_NQEFA_W_KAEAPEFA_WAEA_KD@Z 000000014002a708     libucrt:input.obj
 0004:00000714       $pdata$?write_character@?$input_processor@DV?$string_input_adapter@D@__crt_stdio_input@@@__crt_stdio_input@@AEAA_NQEFA_W_KAEAPEFA_WAEA_KD@Z 000000014002a714     libucrt:input.obj
 0004:00000720       $pdata$?write_integer@?$input_processor@DV?$stream_input_adapter@D@__crt_stdio_input@@@__crt_stdio_input@@AEAA_N_K_N@Z 000000014002a720     libucrt:input.obj
 0004:0000072c       $pdata$?write_integer@?$input_processor@DV?$string_input_adapter@D@__crt_stdio_input@@@__crt_stdio_input@@AEAA_N_K_N@Z 000000014002a72c     libucrt:input.obj
 0004:00000738       $pdata$__stdio_common_vfscanf 000000014002a738     libucrt:input.obj
 0004:00000744       $pdata$__stdio_common_vsscanf 000000014002a744     libucrt:input.obj
 0004:00000750       $pdata$memcpy_s            000000014002a750     libucrt:cfout.obj
 0004:00000750       $pdata$memcpy_s            000000014002a750     libucrt:input.obj
 0004:0000075c       $pdata$??$common_fsopen@D@@YAPEAU_iobuf@@QEBD0H@Z 000000014002a75c     libucrt:fopen.obj
 0004:00000768       $pdata$_fclose_nolock      000000014002a768     libucrt:fclose.obj
 0004:00000774       $pdata$fclose              000000014002a774     libucrt:fclose.obj
 0004:00000780       $pdata$_seh_filter_exe     000000014002a780     libucrt:exception_filter.obj
 0004:0000078c       $pdata$__acrt_invoke_user_matherr 000000014002a78c     libucrt:matherr.obj
 0004:00000798       $pdata$??$parse_command_line@D@@YAXPEADPEAPEAD0PEA_K2@Z 000000014002a798     libucrt:argv_parsing.obj
 0004:000007a4       $pdata$__acrt_allocate_buffer_for_argv 000000014002a7a4     libucrt:argv_parsing.obj
 0004:000007b0       $pdata$_configure_narrow_argv 000000014002a7b0     libucrt:argv_parsing.obj
 0004:000007bc       $pdata$??$common_get_or_create_environment_nolock@D@@YAPEAPEADXZ 000000014002a7bc     libucrt:environment_initialization.obj
 0004:000007c8       $pdata$??$common_initialize_environment_nolock@D@@YAHXZ 000000014002a7c8     libucrt:environment_initialization.obj
 0004:000007d4       $pdata$??$create_environment@D@@YAQEAPEADQEAD@Z 000000014002a7d4     libucrt:environment_initialization.obj
 0004:000007e0       $pdata$??$free_environment@_W@@YAXQEAPEA_W@Z 000000014002a7e0     libucrt:environment_initialization.obj
 0004:000007e0       $pdata$??$free_environment@D@@YAXQEAPEAD@Z 000000014002a7e0     libucrt:environment_initialization.obj
 0004:000007ec       $pdata$??$initialize_environment_by_cloning_nolock@D@@YAHXZ 000000014002a7ec     libucrt:environment_initialization.obj
 0004:000007f8       $pdata$??$uninitialize_environment_internal@D@@YAXAEAPEAPEAD@Z 000000014002a7f8     libucrt:environment_initialization.obj
 0004:00000804       $pdata$??$uninitialize_environment_internal@_W@@YAXAEAPEAPEA_W@Z 000000014002a804     libucrt:environment_initialization.obj
 0004:00000810       $pdata$__dcrt_uninitialize_environments_nolock 000000014002a810     libucrt:environment_initialization.obj
 0004:0000081c       $pdata$_get_initial_narrow_environment 000000014002a81c     libucrt:environment_initialization.obj
 0004:00000828       $pdata$_initterm           000000014002a828     libucrt:initterm.obj
 0004:00000834       $pdata$_initterm_e         000000014002a834     libucrt:initterm.obj
 0004:00000840       $pdata$?common_exit@@YAXHW4_crt_exit_cleanup_mode@@W4_crt_exit_return_mode@@@Z 000000014002a840     libucrt:exit.obj
 0004:0000084c       $pdata$?exit_or_terminate_process@@YAXI@Z 000000014002a84c     libucrt:exit.obj
 0004:00000858       $pdata$?try_cor_exit_process@@YAXI@Z 000000014002a858     libucrt:exit.obj
 0004:00000864       $pdata$_register_thread_local_exe_atexit_callback 000000014002a864     libucrt:exit.obj
 0004:00000870       $pdata$_get_fmode          000000014002a870     libucrt:setmode.obj
 0004:0000087c       $pdata$_set_fmode          000000014002a87c     libucrt:setmode.obj
 0004:00000888       $pdata$_setmode_nolock     000000014002a888     libucrt:setmode.obj
 0004:00000894       $pdata$__acrt_initialize_command_line 000000014002a894     libucrt:argv_data.obj
 0004:000008a0       $pdata$__acrt_uninitialize_locale 000000014002a8a0     libucrt:wsetlocale.obj
 0004:000008ac       $pdata$_configthreadlocale 000000014002a8ac     libucrt:wsetlocale.obj
 0004:000008b8       $pdata$_set_new_mode       000000014002a8b8     libucrt:new_mode.obj
 0004:000008c4       $pdata$??$?RV<lambda_b8c45f8f788dd370798f47cfe8ac3a86>@@AEAV<lambda_4e60a939b0d047cfe11ddc22648dfba9>@@V<lambda_332c3edc96d0294ec56c57d38c1cdfd5>@@@?$__crt_seh_guarded_call@H@@QEAAH$$QEAV<lambda_b8c45f8f788dd370798f47cfe8ac3a86>@@AEAV<lambda_4e60a939b0d047cfe11ddc22648dfba9>@@$$QEAV<lambda_332c3edc96d0294ec56c57d38c1cdfd5>@@@Z 000000014002a8c4     libucrt:onexit.obj
 0004:000008d0       $pdata$??$?RV<lambda_e24bbb7b643b32fcea6fa61b31d4c984>@@AEAV<lambda_275893d493268fdec8709772e3fcec0e>@@V<lambda_9d71df4d7cf3f480f8d633942495c3b0>@@@?$__crt_seh_guarded_call@H@@QEAAH$$QEAV<lambda_e24bbb7b643b32fcea6fa61b31d4c984>@@AEAV<lambda_275893d493268fdec8709772e3fcec0e>@@$$QEAV<lambda_9d71df4d7cf3f480f8d633942495c3b0>@@@Z 000000014002a8d0     libucrt:onexit.obj
 0004:000008dc       $pdata$??R<lambda_4e60a939b0d047cfe11ddc22648dfba9>@@QEBAHXZ 000000014002a8dc     libucrt:onexit.obj
 0004:000008e8       $pdata$_execute_onexit_table 000000014002a8e8     libucrt:onexit.obj
 0004:000008f4       $pdata$_register_onexit_function 000000014002a8f4     libucrt:onexit.obj
 0004:00000900       $pdata$initialize_c        000000014002a900     libucrt:initialization.obj
 0004:0000090c       $pdata$uninitialize_environment 000000014002a90c     libucrt:initialization.obj
 0004:00000918       $pdata$initialize_pointers 000000014002a918     libucrt:initialization.obj
 0004:00000924       $pdata$uninitialize_allocated_memory 000000014002a924     libucrt:initialization.obj
 0004:00000930       $pdata$terminate           000000014002a930     libucrt:terminate.obj
 0004:0000093c       $pdata$_free_base          000000014002a93c     libucrt:free_base.obj
 0004:00000948       $pdata$_malloc_base        000000014002a948     libucrt:malloc_base.obj
 0004:00000954       $pdata$strcpy_s            000000014002a954     libucrt:strcpy_s.obj
 0004:00000960       $pdata$abort               000000014002a960     libucrt:abort.obj
 0004:0000096c       $pdata$_calloc_base        000000014002a96c     libucrt:calloc_base.obj
 0004:00000978       $pdata$??$parse_integer@KV?$c_string_character_source@D@__crt_strtox@@@__crt_strtox@@YAKQEAU__crt_locale_pointers@@V?$c_string_character_source@D@0@H_N@Z 000000014002a978     libucrt:atox.obj
 0004:00000984       $pdata$??$parse_integer@_KV?$c_string_character_source@D@__crt_strtox@@@__crt_strtox@@YA_KQEAU__crt_locale_pointers@@V?$c_string_character_source@D@0@H_N@Z 000000014002a984     libucrt:atox.obj
 0004:00000990       $pdata$__acrt_call_reportfault 000000014002a990     libucrt:invalid_parameter.obj
 0004:0000099c       $pdata$_invalid_parameter  000000014002a99c     libucrt:invalid_parameter.obj
 0004:000009a8       $pdata$_invalid_parameter_noinfo 000000014002a9a8     libucrt:invalid_parameter.obj
 0004:000009b4       $pdata$_invoke_watson      000000014002a9b4     libucrt:invalid_parameter.obj
 0004:000009c0       $pdata$__acrt_errno_map_os_error 000000014002a9c0     libucrt:errno.obj
 0004:000009cc       $pdata$__doserrno          000000014002a9cc     libucrt:errno.obj
 0004:000009d8       $pdata$_errno              000000014002a9d8     libucrt:errno.obj
 0004:000009e4       $pdata$?try_get_function@@YAPEAXW4function_id@?A0x63058377@@QEBDQEBW4module_id@2@2@Z 000000014002a9e4     libucrt:winapi_thunks.obj
 0004:000009f0       $pdata$__acrt_AreFileApisANSI 000000014002a9f0     libucrt:winapi_thunks.obj
 0004:000009fc       $pdata$__acrt_CompareStringEx 000000014002a9fc     libucrt:winapi_thunks.obj
 0004:00000a08       $pdata$__acrt_FlsAlloc     000000014002aa08     libucrt:winapi_thunks.obj
 0004:00000a14       $pdata$__acrt_FlsFree      000000014002aa14     libucrt:winapi_thunks.obj
 0004:00000a20       $pdata$__acrt_FlsGetValue  000000014002aa20     libucrt:winapi_thunks.obj
 0004:00000a2c       $pdata$__acrt_FlsSetValue  000000014002aa2c     libucrt:winapi_thunks.obj
 0004:00000a38       $pdata$__acrt_InitializeCriticalSectionEx 000000014002aa38     libucrt:winapi_thunks.obj
 0004:00000a44       $pdata$__acrt_LCMapStringEx 000000014002aa44     libucrt:winapi_thunks.obj
 0004:00000a50       $pdata$__acrt_LocaleNameToLCID 000000014002aa50     libucrt:winapi_thunks.obj
 0004:00000a5c       $pdata$__acrt_initialize_winapi_thunks 000000014002aa5c     libucrt:winapi_thunks.obj
 0004:00000a68       $pdata$__acrt_is_packaged_app 000000014002aa68     libucrt:winapi_thunks.obj
 0004:00000a74       $pdata$__acrt_uninitialize_winapi_thunks 000000014002aa74     libucrt:winapi_thunks.obj
 0004:00000a80       $pdata$_fcloseall          000000014002aa80     libucrt:closeall.obj
 0004:00000a8c       $pdata$__acrt_stdio_flush_nolock 000000014002aa8c     libucrt:fflush.obj
 0004:00000a98       $pdata$_fflush_nolock      000000014002aa98     libucrt:fflush.obj
 0004:00000aa4       $pdata$common_flush_all    000000014002aaa4     libucrt:fflush.obj
 0004:00000ab0       $pdata$__acrt_stdio_free_buffer_nolock 000000014002aab0     libucrt:_freebuf.obj
 0004:00000abc       $pdata$?initialize_inherited_file_handles_nolock@@YAXXZ 000000014002aabc     libucrt:ioinit.obj
 0004:00000ac8       $pdata$?initialize_stdio_handles_nolock@@YAXXZ 000000014002aac8     libucrt:ioinit.obj
 0004:00000ad4       $pdata$__acrt_initialize_lowio 000000014002aad4     libucrt:ioinit.obj
 0004:00000ae0       $pdata$__acrt_uninitialize_lowio 000000014002aae0     libucrt:ioinit.obj
 0004:00000aec       $pdata$isdigit             000000014002aaec     libucrt:_ctype.obj
 0004:00000af8       $pdata$isspace             000000014002aaf8     libucrt:_ctype.obj
 0004:00000b04       $pdata$?internal_isupper_l@@YA_NHQEAU__crt_locale_pointers@@@Z 000000014002ab04     libucrt:tolower_toupper.obj
 0004:00000b10       $pdata$_tolower_l          000000014002ab10     libucrt:tolower_toupper.obj
 0004:00000b1c       $pdata$tolower             000000014002ab1c     libucrt:tolower_toupper.obj
 0004:00000b28       $pdata$strtol              000000014002ab28     libucrt:strtox.obj
 0004:00000b34       $pdata$strtoull            000000014002ab34     libucrt:strtox.obj
 0004:00000b40       $pdata$_mbtowc_l           000000014002ab40     libucrt:mbtowc.obj
 0004:00000b4c       $pdata$_wctomb_s_l         000000014002ab4c     libucrt:wctomb.obj
 0004:00000b58       $pdata$wctomb_s            000000014002ab58     libucrt:wctomb.obj
 0004:00000b64       $pdata$strnlen             000000014002ab64     libucrt:strnlen.obj
 0004:00000b70       $pdata$wcsnlen             000000014002ab70     libucrt:strnlen.obj
 0004:00000b7c       $pdata$??$?RV<lambda_46352004c1216016012b18bd6f87e700>@@AEAV<lambda_3bd07e1a1191394380780325891bf33f>@@V<lambda_334532d3f185bcaa59b5be82d7d22bff>@@@?$__crt_seh_guarded_call@X@@QEAAX$$QEAV<lambda_46352004c1216016012b18bd6f87e700>@@AEAV<lambda_3bd07e1a1191394380780325891bf33f>@@$$QEAV<lambda_334532d3f185bcaa59b5be82d7d22bff>@@@Z 000000014002ab7c     libucrt:per_thread_data.obj
 0004:00000b88       $pdata$??$?RV<lambda_5e887d1dcbef67a5eb4283622ba103bf>@@AEAV<lambda_4466841279450cc726390878d4a41900>@@V<lambda_341c25c0346d94847f1f3c463c57e077>@@@?$__crt_seh_guarded_call@X@@QEAAX$$QEAV<lambda_5e887d1dcbef67a5eb4283622ba103bf>@@AEAV<lambda_4466841279450cc726390878d4a41900>@@$$QEAV<lambda_341c25c0346d94847f1f3c463c57e077>@@@Z 000000014002ab88     libucrt:per_thread_data.obj
 0004:00000b94       $pdata$??$?RV<lambda_72d1df2b273a38828b1ce30cbf4cdab5>@@AEAV<lambda_876a65b173b8412d3a47c70a915b0cf4>@@V<lambda_41932305e351933ebe8f8be3ed8bb5dc>@@@?$__crt_seh_guarded_call@X@@QEAAX$$QEAV<lambda_72d1df2b273a38828b1ce30cbf4cdab5>@@AEAV<lambda_876a65b173b8412d3a47c70a915b0cf4>@@$$QEAV<lambda_41932305e351933ebe8f8be3ed8bb5dc>@@@Z 000000014002ab94     libucrt:per_thread_data.obj
 0004:00000ba0       $pdata$??$?RV<lambda_fb3a7dec4e47f37f22dae91bb15c9095>@@AEAV<lambda_698284760c8add0bfb0756c19673e34b>@@V<lambda_dfb8eca1e75fef3034a8fb18dd509707>@@@?$__crt_seh_guarded_call@X@@QEAAX$$QEAV<lambda_fb3a7dec4e47f37f22dae91bb15c9095>@@AEAV<lambda_698284760c8add0bfb0756c19673e34b>@@$$QEAV<lambda_dfb8eca1e75fef3034a8fb18dd509707>@@@Z 000000014002aba0     libucrt:per_thread_data.obj
 0004:00000bac       $pdata$?construct_ptd_array@@YAXQEAU__acrt_ptd@@@Z 000000014002abac     libucrt:per_thread_data.obj
 0004:00000bb8       $pdata$?destroy_fls@@YAXPEAX@Z 000000014002abb8     libucrt:per_thread_data.obj
 0004:00000bc4       $pdata$?destroy_ptd_array@@YAXQEAU__acrt_ptd@@@Z 000000014002abc4     libucrt:per_thread_data.obj
 0004:00000bd0       $pdata$?replace_current_thread_locale_nolock@@YAXQEAU__acrt_ptd@@QEAU__crt_locale_data@@@Z 000000014002abd0     libucrt:per_thread_data.obj
 0004:00000bdc       $pdata$__acrt_getptd       000000014002abdc     libucrt:per_thread_data.obj
 0004:00000be8       $pdata$__acrt_getptd_noexit 000000014002abe8     libucrt:per_thread_data.obj
 0004:00000bf4       $pdata$__acrt_initialize_ptd 000000014002abf4     libucrt:per_thread_data.obj
 0004:00000c00       $pdata$__acrt_uninitialize_ptd 000000014002ac00     libucrt:per_thread_data.obj
 0004:00000c0c       $pdata$__acrt_update_locale_info 000000014002ac0c     libucrt:locale_update.obj
 0004:00000c18       $pdata$__acrt_update_multibyte_info 000000014002ac18     libucrt:locale_update.obj
 0004:00000c24       $pdata$?fp_format_a@@YAHQEBNPEAD_KQEAD2H_NIQEAU__crt_locale_pointers@@@Z 000000014002ac24     libucrt:cvt.obj
 0004:00000c30       $pdata$?fp_format_e@@YAHQEBNQEAD_K12H_NIQEAU__crt_locale_pointers@@@Z 000000014002ac30     libucrt:cvt.obj
 0004:00000c3c       $pdata$?fp_format_e_internal@@YAHQEAD_KH_NIQEAU_strflt@@2QEAU__crt_locale_pointers@@@Z 000000014002ac3c     libucrt:cvt.obj
 0004:00000c48       $pdata$?fp_format_f_internal@@YAHQEAD_KHQEAU_strflt@@_NQEAU__crt_locale_pointers@@@Z 000000014002ac48     libucrt:cvt.obj
 0004:00000c54       $pdata$?fp_format_g@@YAHQEBNQEAD_K12H_NIQEAU__crt_locale_pointers@@@Z 000000014002ac54     libucrt:cvt.obj
 0004:00000c60       $pdata$?fp_format_nan_or_infinity@@YAHW4__acrt_fp_class@@_NPEAD_K1@Z 000000014002ac60     libucrt:cvt.obj
 0004:00000c6c       $pdata$__acrt_fp_format    000000014002ac6c     libucrt:cvt.obj
 0004:00000c78       $pdata$_fileno             000000014002ac78     libucrt:fileno.obj
 0004:00000c84       $pdata$__acrt_stdio_begin_temporary_buffering_nolock 000000014002ac84     libucrt:_sftbuf.obj
 0004:00000c90       $pdata$__acrt_stdio_end_temporary_buffering_nolock 000000014002ac90     libucrt:_sftbuf.obj
 0004:00000c9c       $pdata$__pctype_func       000000014002ac9c     libucrt:ctype.obj
 0004:00000ca8       $pdata$_isctype_l          000000014002aca8     libucrt:isctype.obj
 0004:00000cb4       $pdata$_fgetc_nolock       000000014002acb4     libucrt:fgetc.obj
 0004:00000cc0       $pdata$_ungetc_nolock      000000014002acc0     libucrt:ungetc.obj
 0004:00000ccc       $pdata$fegetround          000000014002accc     libucrt:fegetround.obj
 0004:00000cd8       $pdata$?__acrt_stdio_allocate_stream@@YA?AV__crt_stdio_stream@@XZ 000000014002acd8     libucrt:stream.obj
 0004:00000ce4       $pdata$?find_or_allocate_unused_stream_nolock@@YA?AV__crt_stdio_stream@@XZ 000000014002ace4     libucrt:stream.obj
 0004:00000cf0       $pdata$??$__acrt_stdio_parse_mode@D@@YA?AU__acrt_stdio_stream_mode@@QEBD@Z 000000014002acf0     libucrt:openfile.obj
 0004:00000cfc       $pdata$_openfile           000000014002acfc     libucrt:openfile.obj
 0004:00000d08       $pdata$??$?RV<lambda_bfedae4ebbf01fab1bb6dcc6a9e276e0>@@AEAV<lambda_2fe9b910cf3cbf4a0ab98a02ba45b3ec>@@V<lambda_237c231691f317818eb88cc1d5d642d6>@@@?$__crt_seh_guarded_call@H@@QEAAH$$QEAV<lambda_bfedae4ebbf01fab1bb6dcc6a9e276e0>@@AEAV<lambda_2fe9b910cf3cbf4a0ab98a02ba45b3ec>@@$$QEAV<lambda_237c231691f317818eb88cc1d5d642d6>@@@Z 000000014002ad08     libucrt:close.obj
 0004:00000d14       $pdata$_close              000000014002ad14     libucrt:close.obj
 0004:00000d20       $pdata$_close_nolock       000000014002ad20     libucrt:close.obj
 0004:00000d2c       $pdata$??$common_expand_argv_wildcards@D@@YAHQEAPEADQEAPEAPEAD@Z 000000014002ad2c     libucrt:argv_wildcards.obj
 0004:00000d38       $pdata$??$copy_and_add_argument_to_buffer@D@@YAHQEBD0_KAEAV?$argument_list@D@?A0xca0879c4@@@Z 000000014002ad38     libucrt:argv_wildcards.obj
 0004:00000d44       $pdata$??$expand_argument_wildcards@D@@YAHQEAD0AEAV?$argument_list@D@?A0xca0879c4@@@Z 000000014002ad44     libucrt:argv_wildcards.obj
 0004:00000d50       $pdata$?expand_if_necessary@?$argument_list@D@?A0xca0879c4@@AEAAHXZ 000000014002ad50     libucrt:argv_wildcards.obj
 0004:00000d5c       $pdata$??$?RV<lambda_99476a1ad63dd22509b5d3e65b0ffc95>@@AEAV<lambda_ad1ced32f4ac17aa236e5ef05d6b3b7c>@@V<lambda_f7424dd8d45958661754dc4f2697e9c3>@@@?$__crt_seh_guarded_call@X@@QEAAX$$QEAV<lambda_99476a1ad63dd22509b5d3e65b0ffc95>@@AEAV<lambda_ad1ced32f4ac17aa236e5ef05d6b3b7c>@@$$QEAV<lambda_f7424dd8d45958661754dc4f2697e9c3>@@@Z 000000014002ad5c     libucrt:mbctype.obj
 0004:00000d68       $pdata$??R<lambda_ad1ced32f4ac17aa236e5ef05d6b3b7c>@@QEBAXXZ 000000014002ad68     libucrt:mbctype.obj
 0004:00000d74       $pdata$?getSystemCP@@YAHH@Z 000000014002ad74     libucrt:mbctype.obj
 0004:00000d80       $pdata$?setSBCS@@YAXPEAU__crt_multibyte_data@@@Z 000000014002ad80     libucrt:mbctype.obj
 0004:00000d8c       $pdata$?setSBUpLow@@YAXPEAU__crt_multibyte_data@@@Z 000000014002ad8c     libucrt:mbctype.obj
 0004:00000d98       $pdata$?setmbcp_internal@@YAHH_N@Z 000000014002ad98     libucrt:mbctype.obj
 0004:00000da4       $pdata$__acrt_initialize_multibyte 000000014002ada4     libucrt:mbctype.obj
 0004:00000db0       $pdata$__acrt_update_thread_multibyte_data 000000014002adb0     libucrt:mbctype.obj
 0004:00000dbc       $pdata$_setmbcp_nolock     000000014002adbc     libucrt:mbctype.obj
 0004:00000dc8       $pdata$?x_ismbbtype_l@@YAHPEAU__crt_locale_pointers@@IHH@Z 000000014002adc8     libucrt:ismbbyte.obj
 0004:00000dd4       $pdata$__dcrt_get_narrow_environment_from_os 000000014002add4     libucrt:get_environment_from_os.obj
 0004:00000de0       $pdata$??$common_set_variable_in_environment_nolock@D@@YAHQEADH@Z 000000014002ade0     libucrt:setenv.obj
 0004:00000dec       $pdata$??$copy_environment@D@@YAPEAPEADQEAPEAD@Z 000000014002adec     libucrt:setenv.obj
 0004:00000df8       $pdata$__acrt_initialize_locks 000000014002adf8     libucrt:locks.obj
 0004:00000e04       $pdata$__acrt_uninitialize_locks 000000014002ae04     libucrt:locks.obj
 0004:00000e10       $pdata$__acrt_lowio_create_handle_array 000000014002ae10     libucrt:osfinfo.obj
 0004:00000e1c       $pdata$__acrt_lowio_destroy_handle_array 000000014002ae1c     libucrt:osfinfo.obj
 0004:00000e28       $pdata$__acrt_lowio_ensure_fh_exists 000000014002ae28     libucrt:osfinfo.obj
 0004:00000e34       $pdata$__acrt_lowio_set_os_handle 000000014002ae34     libucrt:osfinfo.obj
 0004:00000e40       $pdata$_alloc_osfhnd       000000014002ae40     libucrt:osfinfo.obj
 0004:00000e4c       $pdata$_free_osfhnd        000000014002ae4c     libucrt:osfinfo.obj
 0004:00000e58       $pdata$_get_osfhandle      000000014002ae58     libucrt:osfinfo.obj
 0004:00000e64       $pdata$__acrt_locale_free_monetary 000000014002ae64     libucrt:initmon.obj
 0004:00000e70       $pdata$__acrt_locale_free_numeric 000000014002ae70     libucrt:initnum.obj
 0004:00000e7c       $pdata$?free_crt_array_internal@@YAXQEAPEBX_K@Z 000000014002ae7c     libucrt:inittime.obj
 0004:00000e88       $pdata$__acrt_locale_free_time 000000014002ae88     libucrt:inittime.obj
 0004:00000e94       $pdata$__acrt_GetStringTypeA 000000014002ae94     libucrt:getstringtypea.obj
 0004:00000ea0       $pdata$__acrt_free_locale  000000014002aea0     libucrt:locale_refcounting.obj
 0004:00000eac       $pdata$__acrt_locale_free_lc_time_if_unreferenced 000000014002aeac     libucrt:locale_refcounting.obj
 0004:00000eb8       $pdata$__acrt_release_locale_ref 000000014002aeb8     libucrt:locale_refcounting.obj
 0004:00000ec4       $pdata$__acrt_update_thread_locale_data 000000014002aec4     libucrt:locale_refcounting.obj
 0004:00000ed0       $pdata$_updatetlocinfoEx_nolock 000000014002aed0     libucrt:locale_refcounting.obj
 0004:00000edc       $pdata$_recalloc_base      000000014002aedc     libucrt:recalloc.obj
 0004:00000ee8       $pdata$__acrt_initialize_heap 000000014002aee8     libucrt:heap_handle.obj
 0004:00000ef4       $pdata$__acrt_execute_initializers 000000014002aef4     libucrt:shared_initialization.obj
 0004:00000f00       $pdata$__acrt_execute_uninitializers 000000014002af00     libucrt:shared_initialization.obj
 0004:00000f0c       $pdata$_callnewh           000000014002af0c     libucrt:new_handler.obj
 0004:00000f18       $pdata$_query_new_handler  000000014002af18     libucrt:new_handler.obj
 0004:00000f24       $pdata$??$?RV<lambda_c36588078e9f5dfd39652860aa6b3aaf>@@AEAV<lambda_ec61778202f4f5fc7e7711acc23c3bca>@@V<lambda_dc9d2797ccde5d239b4a0efae8ebd7db>@@@?$__crt_seh_guarded_call@P6AXH@Z@@QEAAP6AXH@Z$$QEAV<lambda_c36588078e9f5dfd39652860aa6b3aaf>@@AEAV<lambda_ec61778202f4f5fc7e7711acc23c3bca>@@$$QEAV<lambda_dc9d2797ccde5d239b4a0efae8ebd7db>@@@Z 000000014002af24     libucrt:signal.obj
 0004:00000f30       $pdata$__acrt_get_sigabrt_handler 000000014002af30     libucrt:signal.obj
 0004:00000f3c       $pdata$raise               000000014002af3c     libucrt:signal.obj
 0004:00000f48       $pdata$?GetTableIndexFromLocaleName@@YAHPEB_W@Z 000000014002af48     libucrt:lcidtoname_downlevel.obj
 0004:00000f54       $pdata$__acrt_DownlevelLocaleNameToLCID 000000014002af54     libucrt:lcidtoname_downlevel.obj
 0004:00000f60       $pdata$??$?RV<lambda_b521505b218e5242e90febf6bfebc422>@@AEAV<lambda_6978c1fb23f02e42e1d9e99668cc68aa>@@V<lambda_314360699dd331753a4119843814e9a7>@@@?$__crt_seh_guarded_call@H@@QEAAH$$QEAV<lambda_b521505b218e5242e90febf6bfebc422>@@AEAV<lambda_6978c1fb23f02e42e1d9e99668cc68aa>@@$$QEAV<lambda_314360699dd331753a4119843814e9a7>@@@Z 000000014002af60     libucrt:commit.obj
 0004:00000f6c       $pdata$_commit             000000014002af6c     libucrt:commit.obj
 0004:00000f78       $pdata$?write_double_translated_ansi_nolock@@YA?AUwrite_result@?A0x9c548279@@HQEBDI@Z 000000014002af78     libucrt:write.obj
 0004:00000f84       $pdata$?write_text_ansi_nolock@@YA?AUwrite_result@?A0x9c548279@@HQEBDI@Z 000000014002af84     libucrt:write.obj
 0004:00000f90       $pdata$?write_text_utf16le_nolock@@YA?AUwrite_result@?A0x9c548279@@HQEBDI@Z 000000014002af90     libucrt:write.obj
 0004:00000f9c       $pdata$?write_text_utf8_nolock@@YA?AUwrite_result@?A0x9c548279@@HQEBDI@Z 000000014002af9c     libucrt:write.obj
 0004:00000fa8       $pdata$_write              000000014002afa8     libucrt:write.obj
 0004:00000fb4       $pdata$_write_nolock       000000014002afb4     libucrt:write.obj
 0004:00000fc0       $pdata$_isleadbyte_l       000000014002afc0     libucrt:_wctype.obj
 0004:00000fcc       $pdata$?__acrt_LCMapStringA_stat@@YAHPEAU__crt_locale_pointers@@PEB_WKPEBDHPEADHHH@Z 000000014002afcc     libucrt:lcmapstringa.obj
 0004:00000fd8       $pdata$__acrt_LCMapStringA 000000014002afd8     libucrt:lcmapstringa.obj
 0004:00000fe4       $pdata$__acrt_fp_strflt_to_string 000000014002afe4     libucrt:_fptostr.obj
 0004:00000ff0       $pdata$__acrt_fltout       000000014002aff0     libucrt:cfout.obj
 0004:00000ffc       $pdata$??$write_buffer_nolock@D@@YA_NDV__crt_stdio_stream@@@Z 000000014002affc     libucrt:_flsbuf.obj
 0004:00001008       $pdata$__acrt_stdio_flush_and_write_narrow_nolock 000000014002b008     libucrt:_flsbuf.obj
 0004:00001014       $pdata$_isatty             000000014002b014     libucrt:isatty.obj
 0004:00001020       $pdata$??$common_refill_and_read_nolock@D@@YAHV__crt_stdio_stream@@@Z 000000014002b020     libucrt:_filbuf.obj
 0004:0000102c       $pdata$__acrt_stdio_allocate_buffer_nolock 000000014002b02c     libucrt:_getbuf.obj
 0004:00001038       $pdata$_getfpcontrolword   000000014002b038     libucrt:_fenvutils.obj
 0004:00001044       $pdata$_getfpstatusword    000000014002b044     libucrt:_fenvutils.obj
 0004:00001050       $pdata$_setfpstatusword    000000014002b050     libucrt:_fenvutils.obj
 0004:00001068       $pdata$_strnicmp           000000014002b068     libucrt:strnicmp.obj
 0004:00001074       $pdata$_strnicmp_l         000000014002b074     libucrt:strnicmp.obj
 0004:00001080       $pdata$??$common_sopen_dispatch@D@@YAHQEBDHHHQEAHH@Z 000000014002b080     libucrt:open.obj
 0004:0000108c       $pdata$?configure_text_mode@@YAHHUfile_options@?A0x656cf9f4@@HAEAW4__crt_lowio_text_mode@@@Z 000000014002b08c     libucrt:open.obj
 0004:00001098       $pdata$?decode_options@@YA?AUfile_options@?A0x656cf9f4@@HHH@Z 000000014002b098     libucrt:open.obj
 0004:000010a4       $pdata$?truncate_ctrl_z_if_present@@YAHH@Z 000000014002b0a4     libucrt:open.obj
 0004:000010b0       $pdata$_sopen_nolock       000000014002b0b0     libucrt:open.obj
 0004:000010bc       $pdata$_sopen_s            000000014002b0bc     libucrt:open.obj
 0004:000010c8       $pdata$_wsopen_nolock      000000014002b0c8     libucrt:open.obj
 0004:000010d4       $pdata$?shortsort@@YAXPEAD0_KP6AHPEBX2@Z@Z 000000014002b0d4     libucrt:qsort.obj
 0004:000010e0       $pdata$2$?shortsort@@YAXPEAD0_KP6AHPEBX2@Z@Z 000000014002b0e0     libucrt:qsort.obj
 0004:000010ec       $pdata$3$?shortsort@@YAXPEAD0_KP6AHPEBX2@Z@Z 000000014002b0ec     libucrt:qsort.obj
 0004:000010f8       $pdata$qsort               000000014002b0f8     libucrt:qsort.obj
 0004:00001104       $pdata$4$qsort             000000014002b104     libucrt:qsort.obj
 0004:00001110       $pdata$5$qsort             000000014002b110     libucrt:qsort.obj
 0004:0000111c       $pdata$strncpy_s           000000014002b11c     libucrt:strncpy_s.obj
 0004:00001128       $pdata$strpbrk             000000014002b128     libucrt:strpbrk.obj
 0004:00001134       $pdata$_mbsdec_l           000000014002b134     libucrt:mbsdec.obj
 0004:00001140       $pdata$?initialize_multibyte@@YAHXZ 000000014002b140     libucrt:multibyte_initializer.obj
 0004:0000114c       $pdata$_strnicoll_l        000000014002b14c     libucrt:strnicol.obj
 0004:00001158       $pdata$_msize              000000014002b158     libucrt:msize.obj
 0004:00001164       $pdata$_realloc_base       000000014002b164     libucrt:realloc_base.obj
 0004:00001170       $pdata$??$common_lseek@_J@@YA_JH_JH@Z 000000014002b170     libucrt:lseek.obj
 0004:0000117c       $pdata$??$common_lseek_nolock@_J@@YA_JH_JH@Z 000000014002b17c     libucrt:lseek.obj
 0004:00001188       $pdata$_putwch_nolock      000000014002b188     libucrt:putwch.obj
 0004:00001194       $pdata$fegetenv            000000014002b194     libucrt:fegetenv.obj
 0004:000011a0       $pdata$fesetenv            000000014002b1a0     libucrt:fesetenv.obj
 0004:000011ac       $pdata$feholdexcept        000000014002b1ac     libucrt:feholdexcept.obj
 0004:000011c4       $pdata$??$translate_text_mode_nolock@_W@@YAHHQEA_W_K@Z 000000014002b1c4     libucrt:read.obj
 0004:000011d0       $pdata$?translate_ansi_or_utf8_nolock@@YAHHQEAD_KQEA_W1@Z 000000014002b1d0     libucrt:read.obj
 0004:000011dc       $pdata$_read               000000014002b1dc     libucrt:read.obj
 0004:000011e8       $pdata$_read_nolock        000000014002b1e8     libucrt:read.obj
 0004:000011f4       $pdata$_clearfp            000000014002b1f4     libucrt:ieee.obj
 0004:00001200       $pdata$common_control87    000000014002b200     libucrt:ieee.obj
 0004:00001218       $pdata$__acrt_copy_path_to_wide_string 000000014002b218     libucrt:string_utilities.obj
 0004:00001224       $pdata$_chsize_nolock      000000014002b224     libucrt:chsize.obj
 0004:00001230       $pdata$?InternalCompareStringA@@YAHPEAU__crt_locale_pointers@@PEB_WKPEBDH2HH@Z 000000014002b230     libucrt:comparestringa.obj
 0004:0000123c       $pdata$__acrt_CompareStringA 000000014002b23c     libucrt:comparestringa.obj
 0004:00001248       $pdata$__dcrt_lowio_initialize_console_output 000000014002b248     libucrt:initcon.obj
 0004:00001254       $pdata$__dcrt_terminate_console_output 000000014002b254     libucrt:initcon.obj
 0004:00001260       $pdata$_call_matherr       000000014002b260     libucrt:libm_error.obj
 0004:0000126c       $pdata$_exception_enabled  000000014002b26c     libucrt:libm_error.obj
 0004:00001278       $pdata$_handle_error       000000014002b278     libucrt:libm_error.obj
 0004:00001284       $pdata$__acrt_initialize_fma3 000000014002b284     libucrt:fma3_available.obj
 0004:00001290       $pdata$_log10_special      000000014002b290     libucrt:log_special.obj
 0004:0000129c       $pdata$_log_special        000000014002b29c     libucrt:log_special.obj
 0004:000012a8       $pdata$_log_special_common 000000014002b2a8     libucrt:log_special.obj
 0004:000012b4       $pdata$_raise_exc          000000014002b2b4     libucrt:fpexcept.obj
 0004:000012c0       $pdata$_raise_exc_ex       000000014002b2c0     libucrt:fpexcept.obj
 0004:000012cc       $pdata$_set_errno_from_matherr 000000014002b2cc     libucrt:fpexcept.obj
 0004:000012d8       $pdata$_clrfp              000000014002b2d8     libucrt:fpctrl.obj
 0004:000012e4       $pdata$_ctrlfp             000000014002b2e4     libucrt:fpctrl.obj
 0004:000012f0       $pdata$_set_statfp         000000014002b2f0     libucrt:fpctrl.obj
 0004:000012fc       $pdata$_statfp             000000014002b2fc     libucrt:fpctrl.obj
 0004:00001308       $pdata$_IsNonwritableInCurrentImage 000000014002b308     LIBCMT:pesect.obj
 0004:00001314       $pdata$__GSHandlerCheck    000000014002b314     LIBCMT:_gshandler_.obj
 0004:00001320       $pdata$__GSHandlerCheckCommon 000000014002b320     LIBCMT:_gshandler_.obj
 0004:00001350       $pdata$strrchr             000000014002b350     libvcruntime:strrchr.obj
 0004:0000135c       $pdata$strchr              000000014002b35c     libvcruntime:strchr.obj
 0004:00001374       $pdata$sqrt                000000014002b374     libucrt:sqrt.obj
 0004:0000138c       $pdata$?filt$0@?0??__scrt_common_main_seh@@YAHXZ@4HA 000000014002b38c     LIBCMT:exe_main.obj
 0004:00001398       $pdata$__scrt_is_nonwritable_in_current_image$filt$0 000000014002b398     LIBCMT:utility.obj
 0004:000013a4       $pdata$?fin$0@?0???$?RV<lambda_c01e8233c1997d6cc4b8f1fd672e07e5>@@AEAV<lambda_3a6204444a8bad05601fdaf7664f6f17>@@V<lambda_b6ae1896c9cebd71befa8310523e5efb>@@@?$__crt_seh_guarded_call@H@@QEAAH$$QEAV<lambda_c01e8233c1997d6cc4b8f1fd672e07e5>@@AEAV<lambda_3a6204444a8bad05601fdaf7664f6f17>@@$$QEAV<lambda_b6ae1896c9cebd71befa8310523e5efb>@@@Z@4HA 000000014002b3a4     libucrt:input.obj
 0004:000013a4       $pdata$?fin$0@?0???$?RV<lambda_aa279a7bcb127014629d5b1d62c7325d>@@AEAV<lambda_0a64b6a4deda75c01876f29c44fc5eb3>@@V<lambda_3323e69fbefe9d1a11713e670d47cdfa>@@@?$__crt_seh_guarded_call@H@@QEAAH$$QEAV<lambda_aa279a7bcb127014629d5b1d62c7325d>@@AEAV<lambda_0a64b6a4deda75c01876f29c44fc5eb3>@@$$QEAV<lambda_3323e69fbefe9d1a11713e670d47cdfa>@@@Z@4HA 000000014002b3a4     libucrt:output.obj
 0004:000013b0       $pdata$?fin$0@?0???$common_fsopen@D@@YAPEAU_iobuf@@QEBD0H@Z@4HA 000000014002b3b0     libucrt:fopen.obj
 0004:000013bc       $pdata$fclose$fin$0        000000014002b3bc     libucrt:fclose.obj
 0004:000013c8       $pdata$?filt$0@?0??common_exit@@YAXHW4_crt_exit_cleanup_mode@@W4_crt_exit_return_mode@@@Z@4HA 000000014002b3c8     libucrt:exit.obj
 0004:000013d4       $pdata$?fin$1@?0??common_exit@@YAXHW4_crt_exit_cleanup_mode@@W4_crt_exit_return_mode@@@Z@4HA 000000014002b3d4     libucrt:exit.obj
 0004:000013e0       $pdata$?fin$0@?0???$?RV<lambda_e24bbb7b643b32fcea6fa61b31d4c984>@@AEAV<lambda_275893d493268fdec8709772e3fcec0e>@@V<lambda_9d71df4d7cf3f480f8d633942495c3b0>@@@?$__crt_seh_guarded_call@H@@QEAAH$$QEAV<lambda_e24bbb7b643b32fcea6fa61b31d4c984>@@AEAV<lambda_275893d493268fdec8709772e3fcec0e>@@$$QEAV<lambda_9d71df4d7cf3f480f8d633942495c3b0>@@@Z@4HA 000000014002b3e0     libucrt:onexit.obj
 0004:000013ec       $pdata$_fcloseall$fin$0    000000014002b3ec     libucrt:closeall.obj
 0004:000013ec       $pdata$?fin$0@?0??__acrt_stdio_allocate_stream@@YA?AV__crt_stdio_stream@@XZ@4HA 000000014002b3ec     libucrt:stream.obj
 0004:000013f8       $pdata$common_flush_all$fin$0 000000014002b3f8     libucrt:fflush.obj
 0004:00001404       $pdata$common_flush_all$fin$1 000000014002b404     libucrt:fflush.obj
 0004:00001410       $pdata$?fin$0@?0???$?RV<lambda_46352004c1216016012b18bd6f87e700>@@AEAV<lambda_3bd07e1a1191394380780325891bf33f>@@V<lambda_334532d3f185bcaa59b5be82d7d22bff>@@@?$__crt_seh_guarded_call@X@@QEAAX$$QEAV<lambda_46352004c1216016012b18bd6f87e700>@@AEAV<lambda_3bd07e1a1191394380780325891bf33f>@@$$QEAV<lambda_334532d3f185bcaa59b5be82d7d22bff>@@@Z@4HA 000000014002b410     libucrt:per_thread_data.obj
 0004:00001410       $pdata$?fin$0@?0???$?RV<lambda_fb3a7dec4e47f37f22dae91bb15c9095>@@AEAV<lambda_698284760c8add0bfb0756c19673e34b>@@V<lambda_dfb8eca1e75fef3034a8fb18dd509707>@@@?$__crt_seh_guarded_call@X@@QEAAX$$QEAV<lambda_fb3a7dec4e47f37f22dae91bb15c9095>@@AEAV<lambda_698284760c8add0bfb0756c19673e34b>@@$$QEAV<lambda_dfb8eca1e75fef3034a8fb18dd509707>@@@Z@4HA 000000014002b410     libucrt:per_thread_data.obj
 0004:00001410       $pdata$?fin$0@?0???$?RV<lambda_99476a1ad63dd22509b5d3e65b0ffc95>@@AEAV<lambda_ad1ced32f4ac17aa236e5ef05d6b3b7c>@@V<lambda_f7424dd8d45958661754dc4f2697e9c3>@@@?$__crt_seh_guarded_call@X@@QEAAX$$QEAV<lambda_99476a1ad63dd22509b5d3e65b0ffc95>@@AEAV<lambda_ad1ced32f4ac17aa236e5ef05d6b3b7c>@@$$QEAV<lambda_f7424dd8d45958661754dc4f2697e9c3>@@@Z@4HA 000000014002b410     libucrt:mbctype.obj
 0004:00001410       $pdata$?fin$0@?0???$?RV<lambda_5e887d1dcbef67a5eb4283622ba103bf>@@AEAV<lambda_4466841279450cc726390878d4a41900>@@V<lambda_341c25c0346d94847f1f3c463c57e077>@@@?$__crt_seh_guarded_call@X@@QEAAX$$QEAV<lambda_5e887d1dcbef67a5eb4283622ba103bf>@@AEAV<lambda_4466841279450cc726390878d4a41900>@@$$QEAV<lambda_341c25c0346d94847f1f3c463c57e077>@@@Z@4HA 000000014002b410     libucrt:per_thread_data.obj
 0004:00001410       $pdata$?fin$0@?0???$?RV<lambda_72d1df2b273a38828b1ce30cbf4cdab5>@@AEAV<lambda_876a65b173b8412d3a47c70a915b0cf4>@@V<lambda_41932305e351933ebe8f8be3ed8bb5dc>@@@?$__crt_seh_guarded_call@X@@QEAAX$$QEAV<lambda_72d1df2b273a38828b1ce30cbf4cdab5>@@AEAV<lambda_876a65b173b8412d3a47c70a915b0cf4>@@$$QEAV<lambda_41932305e351933ebe8f8be3ed8bb5dc>@@@Z@4HA 000000014002b410     libucrt:per_thread_data.obj
 0004:00001410       $pdata$?fin$0@?0???$?RV<lambda_c36588078e9f5dfd39652860aa6b3aaf>@@AEAV<lambda_ec61778202f4f5fc7e7711acc23c3bca>@@V<lambda_dc9d2797ccde5d239b4a0efae8ebd7db>@@@?$__crt_seh_guarded_call@P6AXH@Z@@QEAAP6AXH@Z$$QEAV<lambda_c36588078e9f5dfd39652860aa6b3aaf>@@AEAV<lambda_ec61778202f4f5fc7e7711acc23c3bca>@@$$QEAV<lambda_dc9d2797ccde5d239b4a0efae8ebd7db>@@@Z@4HA 000000014002b410     libucrt:signal.obj
 0004:00001410       $pdata$?fin$0@?0???$?RV<lambda_b8c45f8f788dd370798f47cfe8ac3a86>@@AEAV<lambda_4e60a939b0d047cfe11ddc22648dfba9>@@V<lambda_332c3edc96d0294ec56c57d38c1cdfd5>@@@?$__crt_seh_guarded_call@H@@QEAAH$$QEAV<lambda_b8c45f8f788dd370798f47cfe8ac3a86>@@AEAV<lambda_4e60a939b0d047cfe11ddc22648dfba9>@@$$QEAV<lambda_332c3edc96d0294ec56c57d38c1cdfd5>@@@Z@4HA 000000014002b410     libucrt:onexit.obj
 0004:0000141c       $pdata$__acrt_update_thread_multibyte_data$fin$0 000000014002b41c     libucrt:mbctype.obj
 0004:00001428       $pdata$__acrt_lowio_ensure_fh_exists$fin$0 000000014002b428     libucrt:osfinfo.obj
 0004:00001428       $pdata$_alloc_osfhnd$fin$0 000000014002b428     libucrt:osfinfo.obj
 0004:00001428       $pdata$__acrt_initialize_lowio$fin$0 000000014002b428     libucrt:ioinit.obj
 0004:00001434       $pdata$__acrt_update_thread_locale_data$fin$0 000000014002b434     libucrt:locale_refcounting.obj
 0004:00001434       $pdata$__acrt_uninitialize_locale$fin$0 000000014002b434     libucrt:wsetlocale.obj
 0004:00001440       $pdata$_query_new_handler$fin$0 000000014002b440     libucrt:new_handler.obj
 0004:0000144c       $pdata$raise$fin$0         000000014002b44c     libucrt:signal.obj
 0004:00001458       $pdata$?fin$0@?0???$?RV<lambda_b521505b218e5242e90febf6bfebc422>@@AEAV<lambda_6978c1fb23f02e42e1d9e99668cc68aa>@@V<lambda_314360699dd331753a4119843814e9a7>@@@?$__crt_seh_guarded_call@H@@QEAAH$$QEAV<lambda_b521505b218e5242e90febf6bfebc422>@@AEAV<lambda_6978c1fb23f02e42e1d9e99668cc68aa>@@$$QEAV<lambda_314360699dd331753a4119843814e9a7>@@@Z@4HA 000000014002b458     libucrt:commit.obj
 0004:00001458       $pdata$?fin$0@?0???$?RV<lambda_bfedae4ebbf01fab1bb6dcc6a9e276e0>@@AEAV<lambda_2fe9b910cf3cbf4a0ab98a02ba45b3ec>@@V<lambda_237c231691f317818eb88cc1d5d642d6>@@@?$__crt_seh_guarded_call@H@@QEAAH$$QEAV<lambda_bfedae4ebbf01fab1bb6dcc6a9e276e0>@@AEAV<lambda_2fe9b910cf3cbf4a0ab98a02ba45b3ec>@@$$QEAV<lambda_237c231691f317818eb88cc1d5d642d6>@@@Z@4HA 000000014002b458     libucrt:close.obj
 0004:00001464       $pdata$?fin$0@?0???$common_lseek@_J@@YA_JH_JH@Z@4HA 000000014002b464     libucrt:lseek.obj
 0004:00001464       $pdata$_write$fin$0        000000014002b464     libucrt:write.obj
 0004:00001464       $pdata$_read$fin$0         000000014002b464     libucrt:read.obj
 0004:00001470       $pdata$?fin$0@?0???$common_sopen_dispatch@D@@YAHQEBDHHHQEAHH@Z@4HA 000000014002b470     libucrt:open.obj
 0004:0000147c       $pdata$_ctrlfp$filt$0      000000014002b47c     libucrt:fpctrl.obj
 0004:0000147c       $pdata$common_control87$filt$0 000000014002b47c     libucrt:ieee.obj
 0004:00001488       $pdata$_IsNonwritableInCurrentImage$filt$0 000000014002b488     LIBCMT:pesect.obj
 0005:00000000       __guard_fids__             000000014002c000     libucrt:initialization.obj
 0005:00000060       __guard_fids__             000000014002c060     libucrt:stdio_initializer.obj
 0005:00000064       __guard_fids__             000000014002c064     libucrt:stdio_initializer.obj
 0005:00000068       __guard_fids___acrt_initialize_ptd 000000014002c068     libucrt:per_thread_data.obj
 0005:0000006c       __guard_fids_??$expand_argument_wildcards@D@@YAHQEAD0AEAV?$argument_list@D@?A0xca0879c4@@@Z 000000014002c06c     libucrt:argv_wildcards.obj
 0005:00000070       __guard_fids__             000000014002c070     libucrt:locale_initializer.obj
 0005:00000074       __guard_fids__             000000014002c074     libucrt:multibyte_initializer.obj
 0005:00000078       __guard_fids__             000000014002c078     libucrt:console_output_initializer.obj
 0005:0000007c       __guard_fids__             000000014002c07c     libucrt:fma3_initializer.obj
 0005:00000080       __guard_fids__             000000014002c080     LIBCMT:exe_main.obj
 0005:00000084       __guard_fids__             000000014002c084     LIBCMT:exe_main.obj
 0005:00000088       __guard_fids__             000000014002c088     LIBCMT:exe_main.obj
 0005:0000008c       __guard_fids_?pre_c_initialization@@YAHXZ 000000014002c08c     LIBCMT:exe_main.obj
 0005:00000094       __guard_fids___scrt_set_unhandled_exception_filter 000000014002c094     LIBCMT:utility_desktop.obj
 0005:00000098       __guard_fids__             000000014002c098     LIBCMT:guard_support.obj
 0005:0000009c       __guard_fids___vcrt_initialize_ptd 000000014002c09c     libvcruntime:per_thread_data.obj
 0006:00000060       $R000000                   000000014002d060     * linker generated manifest res *

 Exports

  ordinal    name

